(dp0
VCD-cuKfj2wybw2DDQbp5Wg
p1
F127.0
sVZkmKyB9660N9d30GIrBGTQ
p2
F101.0
sVCy1PV2TdYeDFA16mUOlr3Q
p3
F4.0
sV0lgr88M1Wdzy9iBQbL6L2g
p4
F758.0
sV-dw8f7FLaUmWR7bfJ_Yf0w
p5
F788.0
sVBwA3kNKf269eqyJGutb99g
p6
F695.0
sVyI4LI8-aYYUS9MmrfpidMQ
p7
F219.0
sV2oLJo94Sy1saV-sXB-8Ntw
p8
F658.0
sVW1Nl6_R7amuZ6NStXI3uBA
p9
F91.0
sVJwLgaFivbSO0prsju8H9KQ
p10
F55.0
sVgJmnj8zDHvvpCjbl3qmdtg
p11
F266.0
sV8M2Ladv1AIAUVwoOzxX3VA
p12
F333.0
sVfgJeX63H8D8lhX9lGUkvWw
p13
F216.0
sV5Mujjzv-ZH6HhxT-hWCpVg
p14
F13.0
sV23BfvNiCUERIKFu3w7ljUg
p15
F731.0
sVdST8PACKwlzMBfx1ZYIwig
p16
F730.0
sVNjshRcdJxlshJZRB5X7kbw
p17
F291.0
sVnZ0q9O_u07tQ6vdVvSqRsQ
p18
F363.0
sVwK7unWb9i25ekCP37sWtfQ
p19
F431.0
sV02YOZ7OLgXj18Jp9Fu-Fkg
p20
F311.0
sV6QcNJ32uL1FPdCpaZceepA
p21
F309.0
sV-2EcIDIDnA8H7N81jwYpcQ
p22
F504.0
sVu2NjjrFtg4ZMsoDXtDBqjA
p23
F264.0
sVFSgQ64MiB5YULDdDe_EB4g
p24
F677.0
sVfpv38I0uVuB6hwuFF9jvtg
p25
F464.0
sV1iUQUnkzHGjiWQGNdIO38g
p26
F188.0
sVJeS7ciQNAY6seqFVrhsIuw
p27
F451.0
sVBd1vkKibUwcnXbeD5k4FcA
p28
F725.0
sV4FDobm2noeTbPEGmod36uw
p29
F675.0
sVv3nHiuhcD8PTTxL9bfNlOQ
p30
F285.0
sV1s_F5PS7L8Azn50w860O7w
p31
F595.0
sV3DcR7OUmoFGgu4eklTgfSA
p32
F245.0
sVZtTAPiRKLZSl3xHcOQQZlg
p33
F773.0
sV5d9g1FGxZrweD_bzp9hGvQ
p34
F447.0
sV1_ZgkUK0kGgV-gcFViS5Rg
p35
F205.0
sVCh-PCp_dby_TwyrddRgvDA
p36
F686.0
sV52IVqlAINNlrjva8mDjTkQ
p37
F122.0
sVtW50LVGSciU1A4OEQdm63Q
p38
F659.0
sVrW6Pkgi1MKI5MFXqHb6ycQ
p39
F733.0
sVeXl0_ZA3kfL0MB2BKeDp0A
p40
F357.0
sVEus5ji048KwmXXDSKKmxKg
p41
F542.0
sVvjPS9c7Yt2Vc_gEly-65rQ
p42
F452.0
sVhgf6FxbmLTXCc6uDU5yuWA
p43
F204.0
sVeKc2gY6fPaQy3zNsbIYDvA
p44
F44.0
sVcWzxqo5K69bI-xfWU1oEvA
p45
F248.0
sVghC0cN7g97I9JN6XYe-wmw
p46
F281.0
sVFmbduNxDfGN7TiHrY2UewA
p47
F243.0
sVVVBzicjxYIhE2RR3nUfOTA
p48
F726.0
sV9X8XPJCTqrsiGwsiyuJBTg
p49
F255.0
sVtkXqjDH2_3SvEn8QVaJavA
p50
F678.0
sV0o1du6ipbqx6eEGYFOGxCQ
p51
F785.0
sVae91IRdSc1jUlOq5dKITVA
p52
F580.0
sVs85sNAMlsrI0xCRvfj7Jrw
p53
F20.0
sVfgkJ6KUlrmbKyLDQervxsw
p54
F705.0
sVB5rQFfZXGvOxGXFGqMyV2w
p55
F510.0
sVOnE5y1qBXEchYx-KbfE7zw
p56
F292.0
sVIeg1z6bc94U_RfS-OGxQ_A
p57
F344.0
sVNwVyki35xOcaxhMzHNtHDQ
p58
F65.0
sVBpKuNkYgAuisCNZlSzfUAQ
p59
F62.0
sVBABx9MSQ3lYK0RxR8V3WiQ
p60
F573.0
sV6EWIu6Ea04qcFAL3XSalvQ
p61
F110.0
sV3XDGNCH155seEXyEQPMi_w
p62
F94.0
sV-BJTaybCScNgY73ph1TE8Q
p63
F779.0
sVEWNjX2eqSWi5xHZ-iRR7QA
p64
F258.0
sVoqptcZGSPxribe0W8Y2CKA
p65
F133.0
sV7eG-rakZRHCGyEEELoTFaQ
p66
F460.0
sVMWxyukeYIxIbuzpciZNhXw
p67
F476.0
sVdq27itUgsOV9ObbtpBRezQ
p68
F461.0
sV6-TpD5cV3Q3r4LLLc2piCw
p69
F467.0
sVSxV1Jq7UANuSYpn42JXvOA
p70
F6.0
sVjVh1xvOsIUFRy0cjzrLIlQ
p71
F655.0
sVrl4hqDnywPJDCK4wfbXMzg
p72
F16.0
sV7W6qj6dMdUBIK0J3aY3_oA
p73
F314.0
sVjCMdF94UyMHEi6iv8ys-gg
p74
F379.0
sVXF4uZb_yscXCYcRCALFymg
p75
F418.0
sVmWuHaZZ3Enp-VKQGJG-e0g
p76
F130.0
sVM-RKuwyjIsgY-w9TGLKNSA
p77
F207.0
sVhQJI0jxiUfb0jpveBpyaBQ
p78
F761.0
sVxXQTdJXPGOP-NUYctcQw8g
p79
F12.0
sVqslDggl42fjpzWgFmz6TFA
p80
F501.0
sVMmVpxJO-V0oGWTthJHBrCw
p81
F650.0
sVg74l-c4UXDKTwHuScrO3sg
p82
F57.0
sVDdaPc_xbu6or0qcTPVd1bQ
p83
F459.0
sV5ioyqT-rb2ppl7IVuKwovg
p84
F753.0
sV5H8czpYIxeuScVmLqGt6dw
p85
F706.0
sVWlEmCagvi8Oqf0vjtv21vw
p86
F171.0
sV1-dmQknIfIwZ6rmXk5r0pA
p87
F96.0
sVDQAUe-9wWoPJjSNkxk1mzA
p88
F787.0
sVrN1HXo6UZQ9bMtLDU0N8Pg
p89
F432.0
sVFNxM7Zl-ThbBe9VPHgZF-A
p90
F617.0
sVJlHfP9D77KRB_pVTgmEvzg
p91
F417.0
sVQssDrW4xPnhnpx_nMo2Kow
p92
F457.0
sVuI6fI4oZnt__2gUQNMVVcQ
p93
F488.0
sVt5wQJpxD_8tGusq98hIW1w
p94
F360.0
sVHo2TaXyXAeYb9SWPBVqoqQ
p95
F600.0
sVxBZ1_3ylm3hf3VQHZ3ApFw
p96
F388.0
sV0oSxJd1WGRewv7Afv1dKrw
p97
F380.0
sV-z9w3extrIRiyyW2zHDpGQ
p98
F527.0
sVq0X_CFlX52ll4kmOcTx_UA
p99
F328.0
sVxoGJQ9xNqpMU0GZI_v7Y_A
p100
F324.0
sVwYYVfoYTqV3mHnqwdZ52sQ
p101
F634.0
sVXKEaZzncxtx4BovE2eOAdw
p102
F287.0
sVTqbSA-djveQQOJ3n1o-GaQ
p103
F374.0
sV6FFFFNZLeeHERUs1MatgBg
p104
F478.0
sVC7knPe9a5mnRFhusYi8p6Q
p105
F212.0
sVp8UfcEN8S0gDsf4JJMag2w
p106
F341.0
sVHzt2Rv6SHaZZEb-4peqEPg
p107
F58.0
sVy0mXSJKOi_1y3ZQyXnFGFg
p108
F116.0
sVSJHZlBsy0GF_HYRN7wG-6A
p109
F47.0
sVRek3IynhtJ0IeoLSUsDwAg
p110
F672.0
sVVRVCKQhYDCkzaEDce8GEtQ
p111
F63.0
sV0S2KCUzFvnWvlRWaDMz7Ng
p112
F312.0
sVS90cznhfdL29yMSEZ_EnJQ
p113
F673.0
sV_WnmQPH7Re4sPXLHm1kTbA
p114
F618.0
sV5MCBLBxr10NLUKZ4AboAMg
p115
F713.0
sVRFxjYeLW_aYLdVW3PBwFNg
p116
F237.0
sVMQTF8C-3xd5tcTAwPPXZyQ
p117
F536.0
sVj9AYnOtFC90VpDFbma8Q3A
p118
F40.0
sVIcx1wlmGL9T-X4Oab1hW_Q
p119
F697.0
sVQ2Ik_KYYTDp4SRTRvntiwA
p120
F667.0
sVRm2ojzLmbUW-VGxiDLJiTA
p121
F814.0
sVVFhor53ZPCDw6EELQkSHLg
p122
F420.0
sVE7UTVunQLtiTnGYBlUQFDg
p123
F319.0
sVHFxFq5hl-mVYIZI-oEUNYw
p124
F784.0
sVu-Vjl1vjSFDg5T_pXR6gBA
p125
F296.0
sVkUFw657uRE2MYo4NiIdZgg
p126
F456.0
sVZfflLxpq-zCSErwJTRHEMg
p127
F601.0
sVrJi2YPK6uj4FtE8R7OFQcA
p128
F25.0
sVd_ey4ni1O2smjKeFlgu3RQ
p129
F175.0
sV7BPwYJhCzRJJ6nQwa_QTlA
p130
F238.0
sVBBtrTa6xxqwOIeBEehg8Pw
p131
F414.0
sVQtwcxQ8Uez29iIziMSf3Sw
p132
F804.0
sV2UGVS83gei9c21CoH5nTKQ
p133
F751.0
sVKfMHWkW1ehpQaRtyrpw3GQ
p134
F813.0
sVzjj6fK65LRB4WNlE8Qt3lg
p135
F803.0
sVoAWDgPCwFuLYphdo6eumZw
p136
F230.0
sVITGUYBPYc4wxSa-FAuVDrA
p137
F562.0
sVIpLZ7RevQrFPJWYc9Gxymg
p138
F117.0
sVZwLfrWgTq7uFBQMEjr5ugA
p139
F369.0
sVZeiM3Uspn6CUThUBt03JSw
p140
F286.0
sV65kBlwxjwugt09v8x3-V2g
p141
F661.0
sVJeWxshSB0ANMEY_C8J7GSw
p142
F619.0
sV-0wDYXGaz2mrHd6fQUvPHQ
p143
F698.0
sVL07XxJSZGCl_ETDqyyjBEg
p144
F537.0
sVK1FTB8Pq-OC43LvrDV5qxw
p145
F570.0
sV4FxADcoBgm_8xqTyfmTIug
p146
F186.0
sVQvE5C4vVJ4R6o54bf9oYVQ
p147
F548.0
sV4A0Fjisy8aO4ObsKMBdKhQ
p148
F696.0
sVg7yZeLDpLVY7knjNJLjtGg
p149
F691.0
sVLOLGcB8sZy0nQ91Q9ESe_w
p150
F604.0
sVDhwzZwlP4pfDsOpeIovTjQ
p151
F712.0
sVx-xinceFIUsjPutqNBiAaQ
p152
F294.0
sVGa9DnmdmhE0Zzs_jRtmrfA
p153
F31.0
sVdeJ8rnTplJnklOrKYgo7Bw
p154
F409.0
sVzF-hK3107dbCR9vW_kRTWg
p155
F135.0
sVNTQeAfw-T934DZocmPx2BA
p156
F386.0
sV09_FFRjVsCc7pbqG7MxXyA
p157
F408.0
sVKOo-Zf1zB693nkG-4441_Q
p158
F781.0
sVugVBmapd7bLfXwt2mHx3lA
p159
F680.0
sV-ZM78Lp6guNOiE6yJNAJHw
p160
F304.0
sVNIiI-af78NxSrdTl3mfF0w
p161
F750.0
sVN2bEXLOeKlYcaObv6UwmeQ
p162
F663.0
sVDa9oIAXvE7CN5L1cR_Iotg
p163
F736.0
sVfKZ97laO_XqSuOm1bDPxdQ
p164
F587.0
sVtiLr51Dh-OZJPl0eOyPraw
p165
F646.0
sVbubCIa8tqeWGyTlBjxvuLg
p166
F772.0
sVxwJgGjg_GAMvd5HyO1Ajrg
p167
F86.0
sVBahHBtIfpuT-w-BUO_g1mg
p168
F372.0
sVeFqg1qaOBHq_Od6fRlMcWA
p169
F99.0
sVxQChZzfGNm743JDEXBq2TA
p170
F315.0
sVL5DPhZAKCsbu4ENYAI6UIA
p171
F495.0
sV9uf4g85B_gz2W4d_GZI-Wg
p172
F347.0
sVFncbRu43JSFfyv9720XFNg
p173
F629.0
sVWVVydVWc_Ksp1KDBUKettA
p174
F371.0
sVkfZJXSI7W2H4N6Nou680cQ
p175
F218.0
sVCMOECNxIOi4677aH6ALHgw
p176
F302.0
sVwk-QmrbyCtGD23oIhMP44w
p177
F123.0
sVYjer78RnYr7OCzirgdcOaw
p178
F191.0
sVErwVn08Sine5q_WvsoPVjQ
p179
F566.0
sVAdzpROyCQ-dsqlE2uN9rkw
p180
F450.0
sVzCAtVD9PCNkud9nW-V1Buw
p181
F790.0
sVW3QkozspSmuLnqHf6ZyFsg
p182
F628.0
sVOIOE56uoRo2U4TKZJ4xcjA
p183
F306.0
sVK7Qen6Jo0skqqAEB_XPh4g
p184
F775.0
sVQD0oHlPEgoeDrAeiNNPUUw
p185
F338.0
sV63t96PRXOzPLwshNH-2yhw
p186
F359.0
sVHkYK2IgrylHrGy1tRRoYjw
p187
F500.0
sVh_yuvACgAPnBL2FXiCF4Yg
p188
F260.0
sVrDacT7_YW2-geunGcmgeEw
p189
F143.0
sVxan14G_7IU66GtQPAA2cKw
p190
F157.0
sV0rMkjnsRm82lOhyQH_3enQ
p191
F162.0
sVPzMB3BwmIdaWF_RoiRX5Aw
p192
F592.0
sVHpQ6AMW-v2iDFPOE6fkm0Q
p193
F602.0
sVdLOfp-2TAGAb78jGZPvMoA
p194
F75.0
sVbi9U1kSYSbo2kPh7Xxuayw
p195
F252.0
sVW-lYhvYHboN3qAU-MyaOWg
p196
F256.0
sV5l1oONEcJYr5T3M7C5cSdQ
p197
F430.0
sVa3gOqd146V4T8MIgbC3aMw
p198
F215.0
sVCdbuc3bKT4t-bwC8gBgEcw
p199
F316.0
sVV56AwFRZ7JErc_6dD5Wkbw
p200
F683.0
sVoKdygoDX5CfDJeXzv_EVaw
p201
F26.0
sVFJ-JNJSos44VpUcvSV3qIQ
p202
F644.0
sVSdyaF3_mFMdCig_25qW7TQ
p203
F173.0
sV4ZXk3x-ebk47swpT84hvPw
p204
F820.0
sVRBgpFyntVu4Iy6i0xoI5-g
p205
F349.0
sVRvXTDScB01DbDaV7XOuE-w
p206
F59.0
sVynreu0XsUdKe3iZMh98hXg
p207
F247.0
sVkUSvk0HUX5OFavCIboBZuw
p208
F551.0
sVmZAsOUvjl7Kjlocvn9TnjQ
p209
F353.0
sV5y_4KmkywV9DMSFyoTcYdA
p210
F120.0
sVpmTK1ccGVZLlC1GXRewlDQ
p211
F532.0
sVchG_7z0aA-TMs53pzYZFdg
p212
F521.0
sVBxl3j_UX2PmRl4nga-_4oA
p213
F270.0
sVo1eXNUKkdLRuWmIKbG8YJQ
p214
F511.0
sV_Ab2puRl7Tb9rlgOuPZJQA
p215
F187.0
sVWaxgrE1Uawl2Tqs_CbAHLQ
p216
F301.0
sV-y_rXIfDXY4Egh157AJy7g
p217
F699.0
sV3LhPpiFMgT885GcUKJVyhg
p218
F519.0
sV2VmexIzjZdtABy2hCMElpA
p219
F722.0
sVYZtT78f32jBlkpZRBQ_Hig
p220
F269.0
sVh27kVQQaejp53UUkj_TC-w
p221
F497.0
sVUrSVZlSxyhbH9ftlQJdvGg
p222
F721.0
sVFSTZjd727upEKYE6lTQVwg
p223
F201.0
sVOdUSlS-S6qfZFnDUCKzwEg
p224
F22.0
sVO6dMShJ-dIX_4Qsq6mvvqA
p225
F115.0
sVhOC3CMUckTBUh2caNSxLkQ
p226
F323.0
sV2b7AgGJbUgBKBGH2zOzH6A
p227
F279.0
sVEqqyz3qR9i52uMwzIMv66g
p228
F208.0
sVCA2Bnb04pIIE8tVveMDdfQ
p229
F223.0
sVGIjIJxRZs5cCjwW9iJFzMg
p230
F339.0
sVEHN4rgxDzw8Mn8wYMkadVQ
p231
F232.0
sV-LP5O6JelPyVS6n2F9JQ7A
p232
F516.0
sVJXrzk6xM-KS8AQ9_Lu6PAQ
p233
F780.0
sV3lr8Yntb-NtzODxiXyKryg
p234
F649.0
sVOu4BjdfuERdzcRN_tMhq4Q
p235
F297.0
sV8p6SjSOQDDAwSysEDeW4NQ
p236
F466.0
sV1UFnVs1TUBqxqWPFvZvXWA
p237
F525.0
sVKVzcPnrigbaQbfKhVBmp0w
p238
F234.0
sVDprJbp9xeq1fSkSQI5S5LA
p239
F318.0
sVW9oNoeByolGx-11pPfPtOQ
p240
F812.0
sVTnds-B3I5i7veps0zkSSmw
p241
F180.0
sV4YH_x__cYF_y8QtaQcYYFg
p242
F290.0
sVcvLwZ2pQQCcO9OMxZDDYGg
p243
F748.0
sVbcxcQhp0sKYd9eUnEVUzPA
p244
F37.0
sVYBT3EKUNN4IP8m4x7sGu1g
p245
F449.0
sVGui44CqZIbPkrn9BEopQcA
p246
F716.0
sVYSZDPSqM-yNB0ueMZ_fkkA
p247
F709.0
sVM-YbGq1rjZtak9-WftwB_g
p248
F792.0
sVLURC3E0DoXYgN9aYTF3XOg
p249
F2.0
sV1g9_rAfoKieVn64my3Awbg
p250
F197.0
sVayOv5dCnUG4qVP9IbxT6mw
p251
F632.0
sVoMyqf4PtBmsBK-tEeXopmg
p252
F195.0
sVqIeKltIL0dpbh2uqh3MfLQ
p253
F815.0
sVrQSw2bmPyf0uAc3mueMTqw
p254
F591.0
sVz6gJnDrzivFidJMr-4z2VA
p255
F793.0
sV3muc_xmedQ2X56RKPlDeOQ
p256
F738.0
sVsJ-LZrznwzO49Syt_cI7Sg
p257
F330.0
sVcDyMUPMeuwAvUr66TkPbhw
p258
F765.0
sVT6oVP03IC8j3sEVm1_Q3JQ
p259
F546.0
sVPDsPblDeTNMmrb2Vs73cPg
p260
F391.0
sVNPQXpV3lCE2BN619Cu_vqg
p261
F800.0
sVffKUynnFibc7HKoJEfTx2w
p262
F384.0
sVLMkFulPXQHRGMAaJSPUyVg
p263
F172.0
sVzUXTdPXno9-V_LVXOGa2sw
p264
F221.0
sV7zoKX7PxU8XqiySFTvJviw
p265
F407.0
sV-ZBReTMh4DEGjc9XtteCtg
p266
F560.0
sVrSIbOOMU--0IPp_oLx-5aA
p267
F326.0
sVHhVNG_1NOEyxfxudd6TSCg
p268
F620.0
sVSmthL25lpvKecOQW2o0DiQ
p269
F642.0
sV3a11vHh3Yc-_Ee1GlyzEYA
p270
F582.0
sVm-NJb7g1fdCqtzhvQuN24A
p271
F411.0
sVN77IYsTnvLbxw21YJmV51A
p272
F576.0
sVeN2pCfT17EGokP9UWnoZUA
p273
F140.0
sVfvnkUEa7q5ULUoFA7gK0mA
p274
F413.0
sVD224RQ9WRnWmndZJiQ-kAA
p275
F760.0
sVP0VK2JsnGT5W1xKS61N1DA
p276
F568.0
sVIMkYC3728bSOlqDGUj4XiQ
p277
F769.0
sVakNJFydZUlOICiMwOluoEg
p278
F412.0
sVneMi0e3dZaUtX7Sg-3Qytw
p279
F66.0
sV13ypZviUQfnDViqSqe6N6w
p280
F776.0
sV7-ahDxB3qUg6nf3tvfG5Nw
p281
F799.0
sVvu2Y7kCTtxhNGmjzWMankw
p282
F322.0
sV-ZqPTpx9TyyvdAWbajdilA
p283
F387.0
sVNV0u95G-WcjZRAfCX-jcWw
p284
F484.0
sV10RpPp6zKOTkJwE6JE7Ung
p285
F455.0
sVUqrBc-0rQViX_RW7dinkMg
p286
F196.0
sVcWtXfBsV349nGxtD2WAvEw
p287
F588.0
sVnc9Z92irQEzxGQ6-IAIDog
p288
F481.0
sV8unLlv-UgMcasYJr21_9kg
p289
F329.0
sVo0EJtscVXyv0lTRN1PJ62Q
p290
F594.0
sVGR5J2C2nhDZQuEsqycjntg
p291
F154.0
sVwLNbwYZLqP4KlHDFEgdL4g
p292
F665.0
sVAqlu39fYy9g9TzDQHKk6Gg
p293
F777.0
sVyrGX6Pw3wTO-1xG9TTsIaw
p294
F124.0
sVKPj-qeb6-sOeYpCCxTTXTQ
p295
F343.0
sVdoz_wwj6F6Ln9ykODiLtZA
p296
F182.0
sVZYZNcugF3xUEGyLOVGiZ0Q
p297
F555.0
sVPQq5JGWvr0u_IKDXZyDAgA
p298
F41.0
sVtI5jVZ1CGZr2tLt1cwGZ5g
p299
F558.0
sV-zhW9UyMKOMuuydi17x7Ag
p300
F424.0
sVcDR_WMmV9dp2LwW-w_KmUA
p301
F273.0
sVlOZKlSyQa-jSv4HZ66okGg
p302
F77.0
sVIHM9JF1XAI8oPlrIm2bUOA
p303
F80.0
sVGN3wBXDaLLmY6Oitfy3T8g
p304
F42.0
sV7vJT5yNQwoz3AGDzYdj1cA
p305
F111.0
sVDzCwPmHIz0KaTYGuR6gs-Q
p306
F214.0
sV7Yax3J7cAfeadbF6z0xiLQ
p307
F337.0
sVz1STeIy0AqI86F4UyFwScA
p308
F283.0
sVWrMDMbEt9ap0VbmNsnKvKA
p309
F72.0
sVhWDybu_KvYLSdEFzGrniTw
p310
F783.0
sVyNE7_6V-78CZ2cnmjO5mIw
p311
F250.0
sVU6ZW22QFOIgkuV53emzIbQ
p312
F125.0
sVjhPrEZShHtyGjSGMNObVmw
p313
F637.0
sVTgxpkzHAlmhctpW-5m2-WA
p314
F578.0
sVm-2OHy6aP26oefPIiiTocg
p315
F789.0
sVuTRWF_Hd-Sbc164ixIP8ng
p316
F98.0
sVb-DA7VhnYRLg6q5jIK3RNw
p317
F577.0
sVfk_5HYLPXos2lzJJOu1dtg
p318
F808.0
sVL3kgTysYuNKMtGPBZiP_bA
p319
F183.0
sVfVOENJCPDoQst-Bk5u9Qkg
p320
F641.0
sVnXsKdsF0p3yCVqvWEckazg
p321
F139.0
sVoprY58vreksJSR3uU4KleA
p322
F502.0
sVZkWzMb9QbB5e3JerEIg4Fw
p323
F458.0
sVA_dC3FJOqvlsDEiDyMrzlA
p324
F73.0
sVZaC6cQONTTmI-00kvExPoQ
p325
F393.0
sV3UaPUwqam3mVT25ZV5eNpQ
p326
F303.0
sVJ19WvTalSBnnNRzi4zCbQw
p327
F540.0
sVasf3NiIfdlbiCUUwCO4iWg
p328
F390.0
sVysakeAQj9mknDNeO69-FzQ
p329
F534.0
sV1Ge372SNSBFGvwo0Uld2bA
p330
F688.0
sVl8gCfUNUdO64TtIv71UUaA
p331
F164.0
sV5MNWgTvvhAaQcnbVql-d_w
p332
F607.0
sVprZz2ZcVhJZZgswQaT8iuw
p333
F222.0
sVoEshN5oq98_g23MvEnRc5A
p334
F7.0
sV1Y9L_kvLgzLmd7po_B56Cg
p335
F429.0
sVqNtaTeRQ7BATPQVwXCi17g
p336
F498.0
sV-kvgG65SqvDO5hxCarrz8Q
p337
F816.0
sVfcMTpwfLS9F5DWTqlp8ktQ
p338
F15.0
sVtNwgHQqTm7tIQ0seDM9pZQ
p339
F707.0
sVAemMXa0hrlHWbp1oelDvnA
p340
F494.0
sVBp6bMTGC8qUxT2A8DC37Cg
p341
F239.0
sVqr7jfn-s1JFxsPsCIjQF9Q
p342
F583.0
sV6mbsJ3BKdSBBj8-RCPkSpw
p343
F406.0
sVnuBFHHkSlzS1UrWg7h8VKQ
p344
F426.0
sVFW9_ifUu77cp9iICLdM2NQ
p345
F355.0
sVUrZ-wI75bWE343NjM1OS-A
p346
F342.0
sVHJQUikI7arFymAclOEx4Mw
p347
F561.0
sVoBhQMjrT0zdSLdlybWRA_w
p348
F754.0
sVo0WGr8L3BWfH2Bslpnqw6g
p349
F9.0
sVz3Kv50opg6gZ3WwhOxwT-g
p350
F585.0
sV8ylLCne6ufPaNHmxF9clFg
p351
F147.0
sV9DT3bp7mBzM4Fe0cinoA1w
p352
F439.0
sV0l9OanUo7tnqBfLCzpw1Dw
p353
F375.0
sVP89uw9XBEkKulDg8puibNg
p354
F797.0
sVvQnR9L9HILjw4PgWB8q1cQ
p355
F85.0
sVq4aPN-ojewCsG6umCMUBJQ
p356
F332.0
sVcqecqnFK2eu88VtKJLHpiA
p357
F53.0
sVBdE5PB7f8dsdBTRzFk8uYg
p358
F745.0
sVj8FLszyM98srKnasj86mdw
p359
F767.0
sV3yxKJWUKh1cZvNSDUJCmag
p360
F383.0
sVbmWK_vOqAhkzbbDn5nfq7w
p361
F512.0
sVQ58U8-HyTDAYEGY13DLEUw
p362
F128.0
sV_aTB-LS7NqzRTljtJjlpew
p363
F193.0
sVV5U4-iDA2FeO2AlkUrATsg
p364
F90.0
sVlh1QIr8Bp8WOI1ws1tPZWA
p365
F320.0
sVtXIN2tMOAiZH-lGwEaHOkg
p366
F167.0
sVx-9AN426Qpj8TXE6KA_yNw
p367
F261.0
sVxJpvRrk04rb4rgWtMXaPUQ
p368
F517.0
sV17FrHEd0jNJn7-FhjKs-kQ
p369
F531.0
sVB6wQf_Ydt9wFAv5Ho7Kmdw
p370
F710.0
sVGnFsut1uTm5CXxmCLve5gA
p371
F268.0
sVl-tXPpDNcnLQ322uqSNPjw
p372
F762.0
sV8W-1w3jvjRQ2BGxaZ5FQhg
p373
F246.0
sVawto1-gW36q0avBVDGf_1g
p374
F280.0
sVhpOJQWalhWC8Lp2tETE1dw
p375
F84.0
sVoKIoEwnyZ5bHSeKLzjcZgQ
p376
F345.0
sVxL8TPB74FH44MNc3cokrFA
p377
F158.0
sVbk0g8mHZh45Tbrmd25bK0w
p378
F149.0
sV4Kdz7kl1U4FTW_yatoZBRQ
p379
F564.0
sVZOui7A-4S9DoMC85nLj8zA
p380
F427.0
sVs6jHqwwRcRBMMYjQdps8dA
p381
F811.0
sV1WmU68ihBaUAiDQn8GPGBg
p382
F236.0
sVv_lWueG7V_vul4E8rCEdjQ
p383
F87.0
sVRmXIjppHNtVveguN10iO1g
p384
F557.0
sV1cGu1Ml-NXDOT1kqvdG8sg
p385
F165.0
sVmJJj_SZff6MEWG5Vx1r8Bg
p386
F29.0
sVH5TEwR-OD0XxILGNaewohA
p387
F48.0
sVJ_qpI2jCkwv7vPNz_9JeqA
p388
F70.0
sVyfXqZkU5iXE07GSHzdsQBA
p389
F3.0
sVGEgifgwsWxtihJ6u5OYfAw
p390
F163.0
sVjSRGcRVD2mT1kXFS93xP8g
p391
F584.0
sVrjxc10BXTh4ulJu9AlwB3g
p392
F746.0
sVnHIUbyU_XZnFtdi3-oymXA
p393
F653.0
sVgOCpgXpL3aIqQWKBK7XNJw
p394
F703.0
sV7F6hIwrbnqrULp22lSLW6Q
p395
F397.0
sVrv9d5TcnnxuOCX7ole_Clg
p396
F774.0
sVQpnH7JOjbMAAaYw0IIt_Xg
p397
F141.0
sV7vZzu-o3eCgQaf7nPfYY5A
p398
F802.0
sVX2uF3C3YBD24xcgKA104Sw
p399
F11.0
sVAm-Qj_9B4yQeWLqAKctbng
p400
F428.0
sV1Xm4Nea4ikRokE0Nlt-dwg
p401
F389.0
sVHvQ576LJm6i6QZuTwl7WVg
p402
F33.0
sVPEN-Ttdt8r2MEk6Q5CnYbw
p403
F35.0
sVuh-FpNh4a3gxZWS37rjMFw
p404
F681.0
sVlv_2d2SqBTQpOi46WZZ9mw
p405
F669.0
sVMqg4L8flJmg8pqeR-uYyRg
p406
F32.0
sV2CCJdupLxjqxthneSuuScQ
p407
F701.0
sVHSkGdE27HF5qI1qWfES1Xg
p408
F535.0
sVV75YT6Vq9UVUIw-Af5XGOg
p409
F708.0
sVS2islVfwCgNg3zfzxqty5g
p410
F71.0
sVIjzzUtnvNyNWlUrAjPWcvg
p411
F131.0
sVqFOy-T6HU4WxS5t_34IBaQ
p412
F282.0
sVF4CcgdflZCkR1_DBemcgWw
p413
F605.0
sVL9ZJpCQgXzfNXiJI9ahyZw
p414
F670.0
sVlNrJZSrO7r6RUf4dSxJJRA
p415
F241.0
sVhbapKIUn5fxSmsqATcMo7Q
p416
F489.0
sVC2oXAYS4H6uOf7CWLywUYQ
p417
F132.0
sV5TkBKdUXpDwkt4v4xvY4KA
p418
F759.0
sVRwxLNxhp3N0-FssSwDizUA
p419
F231.0
sVyaBIVHDxaUBN2YHQ8-YiuQ
p420
F244.0
sVVVyIz8Z73MU9RbZA_JoyRA
p421
F689.0
sVU5XTWZj3Pgf730kOmL6qyA
p422
F112.0
sVQ7h9I9Vam0B00SPFc0aQCg
p423
F144.0
sVnhVvcPyRGLw466qHVbUjrA
p424
F23.0
sVEAXWjnCLv5l_rP6sszQNGA
p425
F729.0
sV3LW_w3POTvwjl0gY-rHmmw
p426
F263.0
sVyoUk3LhiE-isbRh6OMAPLw
p427
F739.0
sVqtWYsp3Fagzr-yWtJvO8JQ
p428
F795.0
sVC1WsGwpZzMxKJSKsDwlDPw
p429
F685.0
sVZw0rJOKGnvHP0yAOm6H65Q
p430
F651.0
sVn_rSCsfU2M3tGcEfFp1q6w
p431
F395.0
sVGoJPBrs_xZmLiYPZrrzOkA
p432
F267.0
sVCNQCdDCxGzhQGm0kwH9myw
p433
F168.0
sVutRlrauZEOF_2kASsIoJ7A
p434
F0.0
sVdarPdQdWCIKuqa3X_rnj0A
p435
F550.0
sVDVu9x-0LrA3VfJjVE4ovVw
p436
F714.0
sVfou9pya19z4NWWAGZslxXA
p437
F549.0
sVcmC-EMKQMxXycAfkgd0g4A
p438
F530.0
sVsKpXijbd_UpoDzVi30UlAA
p439
F747.0
sVaAVaN6Zw6-cRm5nftmOVJQ
p440
F176.0
sVQFQGMnOEoqii9ttB9t-RXg
p441
F106.0
sVXXqfjl1w2QolT4_r_XRiwA
p442
F192.0
sVKMrUM3hIAjbRJbZ_pbcUxQ
p443
F643.0
sVXqqmYmSIFX_TJZ6A2KOOig
p444
F105.0
sVVMGBoRpjgwB0uEWdG-nZ9Q
p445
F443.0
sVBcvtWhc5-1S_Dr0A3Esimg
p446
F242.0
sV9nUtGoOnZMPlZdUQV_aqTA
p447
F19.0
sVM6EkAFfIpIgonH3pbJ6KDQ
p448
F142.0
sVqrzo6epsAUau7pC-EWSPKA
p449
F482.0
sV7tCL10cCP1EzOXyILgnMvA
p450
F553.0
sVfQKue8ExT7MGxFcaxBWAIQ
p451
F567.0
sVSrUdc2DcFphyqk4X5CKbLA
p452
F227.0
sVPbgqvUdjTRh-HoJUqRvlmg
p453
F76.0
sVhqZiOnwZ3J1s7piCBUN6Ow
p454
F49.0
sVBhYROfCjIJsKUk22_IVHig
p455
F18.0
sVlr22Y8AqhDdqLa3Wl0s_fw
p456
F46.0
sVABOfkxY195rTXDZBdJafdg
p457
F654.0
sVn0FSYxOyMgNZ8GFTP1pStw
p458
F194.0
sVEEGwVe2yuihxIrAoSbmnBA
p459
F226.0
sVtQuEVOwokhp63Xl6wEvmqg
p460
F181.0
sVT870ZkavUI1rqaO_FrJFiw
p461
F340.0
sVsbtOWRvGImnYnA-UGOQITA
p462
F740.0
sVNMelfYHO9mncdmZLIABLgQ
p463
F206.0
sVmT58qIyPP1gPrpeOUs6SAg
p464
F614.0
sV1fvv6mMSwmn-aH4qiwTl3Q
p465
F682.0
sVJAMnBfDJj-iAxxJi3hbynQ
p466
F545.0
sVDG3mdYJJ8oLTQum14YMbjQ
p467
F468.0
sVSXTh-cBuiwUAaaI4hw-bcA
p468
F174.0
sVG1NhKQuCe20rKoRq4uGsKg
p469
F150.0
sVHDxc-pPhbL14Y1nglyNR5w
p470
F425.0
sV6jR5cK5retT748-qPMJBfg
p471
F727.0
sV2WmGb0fKKv7qV4msEpvHcw
p472
F121.0
sVzTzIyjPmGn6gaUiJp2Y7-Q
p473
F358.0
sVpSfeno8ExPHvn8NXca5sfA
p474
F581.0
sVtP4HJxKxCp5S9LMAXli7vg
p475
F723.0
sVIOTZ0XTALPJltFaQNVg4HQ
p476
F480.0
sV0xozhwBgwlh3AwJvZ1RYkQ
p477
F351.0
sVkPSVsffSbqpP8qYhgDT0ag
p478
F524.0
sVO05pk5e0BLaO4cpXzH9d-Q
p479
F757.0
sVJUc49GPNufVHhPl2BIoAAw
p480
F755.0
sVLaGysanTNxMYRr7ecBy_zA
p481
F766.0
sVG43n_TjBFQCGqfdCiWAOiQ
p482
F735.0
sVGbrjLXBt14r_5QxJh25U_Q
p483
F190.0
sV3gPyLLEaJCDldl_l4-W7Iw
p484
F200.0
sVbdis9i7u4yENsHYCEpw-qQ
p485
F529.0
sVDFqyIrDXR_Q35KDIyN7u1w
p486
F446.0
sVt0lb4ZHHAAt1K10bjXIATg
p487
F185.0
sVF7o19Xwgh-Qtg-8zgkFNiw
p488
F202.0
sV-4dmE_9lhLi7MOWGI72YhA
p489
F367.0
sVEhLmzQUXMXCpEkCvPTBbYg
p490
F664.0
sVh7kFt1px7Z5A5e92X6aMvQ
p491
F129.0
sVZSArZuYG4MbAMYCQZ2wpbg
p492
F265.0
sV9Y7M-sdl3OzIhFeFYtB1cQ
p493
F728.0
sVYf2t36x-1bc29QHNMz7NnA
p494
F209.0
sVqHQqSgmrXoGdEmq-CVbFwQ
p495
F434.0
sVPIqgaeMSEh7i0AmFgtCYOA
p496
F362.0
sVp4B4hO_QkkkHsdPkshXYAQ
p497
F506.0
sVThHJVG58S2pqc8vJU4fDkA
p498
F189.0
sVEgauZamsAjYo7BQMSr3srg
p499
F126.0
sVuop7sZaxJEQInWQTrQCplA
p500
F233.0
sVWsFrdZbpZOsSkcAYedECgw
p501
F419.0
sV-YVcxGk8zvn3wlCYVKAgsg
p502
F821.0
sVEWennyVQ-MBTUsBXStFa_g
p503
F298.0
sVnGXaUcYpG7Uy_ukAnaaQAw
p504
F612.0
sVhwbBTEwHbR2k6kk-TNDQfA
p505
F589.0
sV5iRCT4uAsyP1UoEUoxbylA
p506
F27.0
sVnB0G7GRthPlFljphIs43mg
p507
F213.0
sVQtmAB9XA5XJYCbTiVAKrRA
p508
F798.0
sVg7XMbtrjPXU8y19yQV7Dkg
p509
F277.0
sVQ1NOOUUhY-jQc2y5MZgdhw
p510
F671.0
sVmgqLOj2fYPriJwfpx1bEWA
p511
F471.0
sV0Puy6PcLNSBct5uZhCsjBQ
p512
F631.0
sVM9X9HpdWPGermFQLYiPCJw
p513
F405.0
sVCqkdpG2tkCPQA69umlAHsA
p514
F24.0
sVyoNEakGPJ5wMmye0_mzDpQ
p515
F492.0
sVJ3ucveGKKJDvtuCNnb_x0g
p516
F416.0
sVXj0O2l0bp633ebmG468aZw
p517
F640.0
sVGadrle05HWe46e5RAh8ayQ
p518
F483.0
sVAnXbqBBa4tZ21RbPWpKoqg
p519
F69.0
sVKPY6FvT6h-r0W0HAC1Buag
p520
F14.0
sV7sdZOj2_JOIXgaEVvr06fA
p521
F485.0
sVx_B6HetResuFzznXnVyEog
p522
F421.0
sV7_lCUJN3MObQvNDxIiE2kA
p523
F610.0
sV-bT32tHNq7ngqZNA4Tr8jA
p524
F743.0
sVVkOrDn_QYoq0x5E1OuqarA
p525
F210.0
sV-EVgopMWXfIOPHktwc0UBA
p526
F622.0
sVmY7AWgtA90KQXxKhFAhC5g
p527
F538.0
sVfrthTngbBHgSdk4j85HmEQ
p528
F17.0
sVVexgOwaVWntJt1ZUyraVcw
p529
F454.0
sVR6VzpLz-WdXhN7fUOSxHsg
p530
F621.0
sVZ_xbO-Iaxbx-ZRPhLJK-Ew
p531
F10.0
sVOtJOScVN2GBvW7gkDexirg
p532
F623.0
sVybURek54OkDGsyqWhBmUjQ
p533
F364.0
sVyRm9czxWwbiJA-rtRAigcA
p534
F440.0
sVfKi8ZF3xpJJkgSusRubeMA
p535
F5.0
sVnj-3QeJ1MiGvird7hG-Nmg
p536
F398.0
sVP6hw2oJ1xY_lwxlpY7VVag
p537
F442.0
sVIn46Vl71LOiXa0Pwj0UHAA
p538
F596.0
sVW9W_t3JhHI1qeIcydQp2zg
p539
F752.0
sVl6BmjZMeQD3rDxWUbiAiow
p540
F794.0
sVJwl_Z1zF1Aa9GNE6BkrBZQ
p541
F321.0
sVrjLRvzq-wfWxzCJFyHbV9g
p542
F463.0
sVxJKnmUxpJfzPovCTsT1kLg
p543
F572.0
sV0-wo7wKN_Rp0Xs6cBMEDJQ
p544
F137.0
sVwyYPJrDaI-bV2maaS6v64A
p545
F693.0
sVF9nMHS70LBqEwKYFFuJ_0Q
p546
F95.0
sV7cDv2xutXJZTHClKDSZKmw
p547
F370.0
sVrEs_PvLXeNlgZz_ZX_5sbw
p548
F490.0
sVSO84n75kAZsRlT4J7oiTzA
p549
F817.0
sVQyP254XCNlI7DvPsze5LQw
p550
F472.0
sVtJvy5BkQTZ_si1XvD-luuw
p551
F679.0
sVM2_QQ2h2fGUbYk2BTpk-bA
p552
F764.0
sVtN32hZNKcyo1mVVzgsp7Bw
p553
F638.0
sVWW3uGfrqB4tTDlQMKCiDbA
p554
F271.0
sVTJ4fDlxi3oPXSqmFuBu3kQ
p555
F539.0
sV5kMii2JySygayQpyPBjqCA
p556
F636.0
sVqWCEL_B7VA0t7HwSz_axuA
p557
F768.0
sVJ7Hl7OCQcFjmUerZhcwxOw
p558
F744.0
sV8kWbwEqdgDjSogg56e6PnA
p559
F491.0
sVlO5LwtjeGx6IdKxXKvzTiA
p560
F611.0
sVQAkESKMA0QgfW0Zfu43T_g
p561
F700.0
sVSqCHL60FNhB5Wii7sTqiig
p562
F657.0
sVTrSM8ON_YdVASOJmMbwnGA
p563
F791.0
sVySM2hhVvRKlEfgw9480yng
p564
F259.0
sVjShUe-hkCGHyP3pbZYvAAQ
p565
F366.0
sVVHzJ_vOA-IOVX_4CoL7SLg
p566
F724.0
sVD2y_hk9ztF3__Uz57Yz_qA
p567
F656.0
sVJCG7J-NmLxgmJK1c4ZRKmQ
p568
F474.0
sVRrkhHk2lrP729zw_lwBHrA
p569
F336.0
sViCZlDy9OHAKIcF_xwLiqOQ
p570
F520.0
sV9pT2y3XKs0Iq9Wq_FWnnkA
p571
F148.0
sV6Rb1cZiuhBPILcHxfbInig
p572
F327.0
sVf0ODldmlswlM4YMSYZMB2g
p573
F79.0
sVzcFy3MIR2wyL6WK2EZDJjA
p574
F806.0
sV25vWgsIA4HMx9Ep-TSbdOw
p575
F229.0
sVhGbp9ZAOdjR6uB7HOmUqAw
p576
F385.0
sVjY-M01vatSmfy-mK_g0h9A
p577
F81.0
sVe-jVwvMAiHTUYIRSmJKFAA
p578
F616.0
sVRMOJLdLHdFai_ksWCMDOoA
p579
F38.0
sV1XAhcVNRi6CQOfM_0bCbng
p580
F771.0
sVvbq-811-_beGtp-SSQhC5Q
p581
F479.0
sVgh1qaF_Kcd357CZU3j9nRA
p582
F300.0
sVCiEcf2sST7Ow1dP_RKb22w
p583
F138.0
sVW0Qnn7H_-q9t9gIF4d1zpQ
p584
F647.0
sVerUjjrcJ1XuzOLWFjQYgWA
p585
F404.0
sV47cFESLhToi-6zUHFwYbNQ
p586
F394.0
sVP_cM_cXgjuQd-CVJ5_HB0A
p587
F134.0
sVkcmnNN6PhjwDoyZ6SFVuTQ
p588
F88.0
sVmzPMerkS6fpKyMFOcsvKyQ
p589
F293.0
sVB3DNjsZ3gRRsWYro4auztg
p590
F415.0
sVB7VzLfDEhEzIdjw7dsqOyA
p591
F184.0
sVk_VkNVPou-CS1gyvN5AsUw
p592
F310.0
sV4UQfst9jve4GCSfWpWn2uA
p593
F8.0
sVO0i6vJuPPXI-ZQGoI7Ze6w
p594
F571.0
sVAw32w4V4iKVvp0ieyc-_0A
p595
F377.0
sV-0MQ4webH2uc1ZAsGsNENg
p596
F704.0
sVSlSpryqL91enzQTEnIQ4yQ
p597
F272.0
sVhnzGNcqwSZ60nkZRytlubg
p598
F289.0
sV8FEUByB3L-F8ZKR0sG4Alw
p599
F741.0
sVgni5Ce-QmGbTgcMo29FpAg
p600
F737.0
sVu8P_KUCD21yVqS6LjnVB0A
p601
F354.0
sVK5UHLEadijlcXeT1NQ0V4g
p602
F453.0
sVr_ugBZeH-aXRZK-m-Ebk3w
p603
F666.0
sVYt_QxDBaJ04yjoZ0i_oKrA
p604
F544.0
sV9RGIvzCGHp8ELF_JgAlbZA
p605
F43.0
sVGvYyEkCdovKI54TCwtqnww
p606
F598.0
sVkQdRlZboAib-5TOy8_cRUA
p607
F335.0
sVaKN3Fq2uaRJTwZRPlI5GcQ
p608
F334.0
sViZE1J4HZ7CQdiL76w6vsJw
p609
F422.0
sVUMPlNNATUNOWyj4eek54vA
p610
F615.0
sVVe44_TZjMKrjKauetKAEPw
p611
F253.0
sVIRap2MhkXYqno-zfVvm2iw
p612
F648.0
sV8rI2CoS4ltQePbZceSOgow
p613
F36.0
sV-TJhZseJMYZjOab0wMOnAQ
p614
F435.0
sVNIwD0clhd0rAgCOOUeLoFQ
p615
F119.0
sVszJGIAReInHXt7r8RQxcKg
p616
F778.0
sVekNHB8kEJnYM1SwmyF7QgQ
p617
F373.0
sVL0LokwGK2UzqLm8vys6Vhg
p618
F356.0
sVWTBRGw61hMi0ot94AeQGcQ
p619
F599.0
sVID4nZaOl74lYHL2ZHSAcQg
p620
F381.0
sVbrpOnxaRsg56LK7OverL0A
p621
F179.0
sV7N9YwddVlZtd2NQkvx3jGQ
p622
F403.0
sVOrU0mIDiC5S4jp_di2Urig
p623
F563.0
sVmZokz37TaR5jFgMrx4WyFw
p624
F376.0
sVYhkMLyEsQd2-nG4BLkUs6w
p625
F382.0
sVe6zOVArBoFjX_Hf5RM32hg
p626
F438.0
sVtUdyuqlMqd9Vvs4UuT0gHQ
p627
F635.0
sVuHOQS0jFKEBwP-YfKXAIjw
p628
F493.0
sVIEsnAtfMqHAGPTrZX-_JHg
p629
F514.0
sVtVrGBW6rj1uebWnqjY-iTQ
p630
F97.0
sV0CptBiovyRGXJDQxKL-aww
p631
F225.0
sVGMA4N1CjX_brPyyiW1gKtg
p632
F441.0
sVJ_G91ktvy_kCarckD91u3Q
p633
F368.0
sVDcpYaji0FxLFE23Z3OZXYw
p634
F113.0
sVunO1U4PV7C4dN5CYZfdaTg
p635
F169.0
sVUDm_mrM67g-U-TxfFdrLew
p636
F770.0
sVdIAHvx0I8T1OVNlgt2paVA
p637
F92.0
sVZslMmrn4z4BMPRRDoaBtgA
p638
F74.0
sVSi_LjNpjzOppNwQOEJJBOg
p639
F718.0
sV-AMiTsraRXFdNX9yBuzWSQ
p640
F410.0
sVuMJ_gLfOuw5Fo4-_giVr2A
p641
F608.0
sVixBoXpBL1JmKmcP1F2fTHA
p642
F83.0
sVxVW2T8jmwg6J99I4bpYUZg
p643
F556.0
sVsoDF6mePh1SuNZI3rN7HPQ
p644
F433.0
sVhbRDTyoHgeqUC-NLVlXR_w
p645
F145.0
sVtxzOZrHK9EVY0kYjSuXkKg
p646
F1.0
sVjAEI-L9PoEZ82vZhdavtQw
p647
F554.0
sV8ER44ODdYnmWtX8eOTOcdw
p648
F146.0
sVc7t_iq4kJl5unwp9TKn9yw
p649
F606.0
sV6YW-IEZzzVaIYpteJlgy9g
p650
F61.0
sVrVEQ7nG4Bo7utMcqURxaIQ
p651
F52.0
sVsZ3mumX9WjJqp6qrjPPUBQ
p652
F734.0
sV9y8q3wSNJKkk3zDj67w1WA
p653
F104.0
sVUvIb5v3biEgcxWKnxf0ocg
p654
F21.0
sVU55y_61paae1f6r6vgITJw
p655
F67.0
sVE9vrC2FpOYtY9OI8Azlchg
p656
F136.0
sV8XtPjxLxYiZv4KLLwuGtcg
p657
F469.0
sVJS6RV2pxmYQ-56Eb_b1v2A
p658
F436.0
sVDqji5fRROkLc3eNMMQOI_Q
p659
F156.0
sVDKV5SFFLda19uIYjSX1HeA
p660
F630.0
sVhpCpVb1Ty9LoYQ0-gzRDDw
p661
F633.0
sVCtrp5IoEKHkixDSIyYHDpw
p662
F166.0
sVT_X-isv6-TBSoo-3t2vr6Q
p663
F251.0
sVyO8_fwzeO0W3-kahJLF1pw
p664
F702.0
sVjo7r2YHS_-mqutpB2k1nPA
p665
F365.0
sVpE24Mg1vpnW9DeHO93ZMWA
p666
F515.0
sVan8U16gLBUAT2S2Hlr8G2w
p667
F402.0
sVHV24bliLib6FuMW3bWBrpQ
p668
F56.0
sVHl86tv4xZmjCUOlRwyg0Ag
p669
F462.0
sVTlE17X7DRDxS6iOsNEndGg
p670
F508.0
sVFN4UY8IjXRZYHsO9YcrDYg
p671
F690.0
sVOvZ7cVhTcJ55yb_mtUhC1Q
p672
F82.0
sV7ZZnTnkP8mDWGmTLoAwS4w
p673
F590.0
sV0MeivhX0kZCfV3zMtHtk9Q
p674
F526.0
sVX42QbBZjG0llxV7Eadgypw
p675
F652.0
sVNVA7dUJ3PQ_7i2R0vZDCWQ
p676
F448.0
sV4z1Q-CCSsXL4VXBYdBKpIQ
p677
F102.0
sVK765Q_R9MNjXTKNwzIgiOQ
p678
F473.0
sVmJM9uvrQ0q1nrSn1xRbHQQ
p679
F177.0
sVT9QAj2joHCAbdKeUyzAZJw
p680
F445.0
sVoqCtfkf3IcwLF7A5iLlxlQ
p681
F694.0
sVISvpnCyQO_vIlWve-3ZuHA
p682
F625.0
sVMsyysnjgKEnvg1fC9Q2OCw
p683
F228.0
sVrAT5CtAPF5WFQs1jPTR5YQ
p684
F505.0
sVt8aJIHxkutRlWMRNSvpq6w
p685
F756.0
sVUTr4PU6YlsaywlAR1afdlg
p686
F100.0
sVJA6uRiy32Dj2Lppq597wxg
p687
F211.0
sVKvFQ5iAir60bO-ZyaXwb-w
p688
F288.0
sVclcemNTSlJs3O7iv_Q7BFw
p689
F93.0
sVVSQyBAZyifo1kxA-ChkP9Q
p690
F103.0
sVptj5uhi0bNaUotgEmaRzrA
p691
F160.0
sVsP_NnexHbu0eqJVmtCOZQQ
p692
F325.0
sV8JGqs4-WtU1jMYcdFKEKGg
p693
F108.0
sV3uugj6C_tFdRa8SmVevJFA
p694
F307.0
sVhutJzKEYHuVq6CP-XSARgg
p695
F54.0
sVmetqnUI1CEG72ubR7R7s9w
p696
F249.0
sVynQgYx_DquFgVMXPxSO-ug
p697
F717.0
sVy8fGAa_jpXQRdsdwQc_0Kg
p698
F692.0
sVamc0ZeuFXVQtHDGgesK9dA
p699
F593.0
sVeBVFtdxqTGdogezZ98HUsQ
p700
F89.0
sVyhsGx56jGWf2tG7YA834Gg
p701
F509.0
sVeCUAG7L_ToChxEqfjDZ0hg
p702
F400.0
sVGZ4tNqBOZnj0YYULdvThkg
p703
F170.0
sVbhrh6Z03sas3osDNIOIqjg
p704
F496.0
sV1otkilxTrHF6Z1vdrrlZrQ
p705
F235.0
sVEjLl4XTw9Pp2SWfZlpemMA
p706
F687.0
sVMXdFKeqnoMDj180hlC7ttg
p707
F299.0
sVTSeMWiOcZwafXWeENOUVCQ
p708
F503.0
sV4ToLQXZxDPcEoyF0hE4_Sw
p709
F786.0
sVv-y68E1spqqt0ZJ6lqCCnQ
p710
F579.0
sVl_n89Nfn1BSJENwHy9nt-A
p711
F151.0
sV612gs1pbACfzsMMiBBO80g
p712
F763.0
sVGOFxMimjetwCpK0fXZICnA
p713
F662.0
sVVPZ0UYhVW2ZkdT-mMQ4KLQ
p714
F109.0
sVKX2Nf2PNl_4rBG6i_R2GNQ
p715
F487.0
sVFO0mjWGV3Z1mBRvdxCAwPA
p716
F308.0
sVytt8UjH-gvH50GnNmXNokA
p717
F437.0
sVHMzeor8uK8ro7mms13UFCg
p718
F346.0
sVHtTw8ZNF_vjO3T5ELQG2AA
p719
F475.0
sVmu6xEHThck91bAyD38XuZQ
p720
F159.0
sVRBvR8MoGAoxeLlm_ajTYgg
p721
F107.0
sVCPT9uImfhxGPiPEwvysudg
p722
F541.0
sVduI9-_L6Sz7yh7nMVGJqLw
p723
F399.0
sVB-edcZUr01jugv_B29plDw
p724
F720.0
sVgHFoIL1HxfJ7NTV414b0zQ
p725
F317.0
sV6S6sZMLuy_StHVs2lqpUUw
p726
F533.0
sVKGpmy60EA7e9DO9ICRbSNA
p727
F559.0
sVdibc1MT2Svkjf9rNmdd4_w
p728
F153.0
sVxq-9imgF_ueORrZDWxeflw
p729
F715.0
sV9A6gPXhZd4UhbU5_S3eUfw
p730
F262.0
sVtM-LuoQZFvLw8_pRo5qDcA
p731
F819.0
sVfrzPgDUNAU4nuw19I8--QA
p732
F575.0
sV_W6wGlxTJeSyuPhi4A_6Vg
p733
F818.0
sVRNIQdiN2RHamTGwdq6PXqg
p734
F203.0
sVkKzUSuPd0mYvaTbqbrHV4g
p735
F565.0
sVfVofcxiQPYZUkwiafOP8cg
p736
F645.0
sVhhTEZQNODA7xPLYRy7Jkew
p737
F305.0
sVutymPwB_ESYxPzgz7Yh-IA
p738
F257.0
sVWetju9YTk-xCgoT1ZKpyJg
p739
F477.0
sVPuzhvFmuIvrCgJ_GRqyJPg
p740
F719.0
sVbi50oVCy6pJBCEXHdhyOFA
p741
F742.0
sVyxplUTyzTXGz0Fj1doXWcA
p742
F295.0
sVN0udGqfu8uh4Pa8OaV2ozQ
p743
F518.0
sVVdAFcSPJgMvCAmp869X2gQ
p744
F60.0
sVp0tGE0tPVnMj_jVh91STvw
p745
F639.0
sVi0oC5O9OYsTvACcbIAWZFw
p746
F392.0
sVWdHp1_dNH4dvYrh7zENVvg
p747
F574.0
sVow1XrcAPb8X3X3w7bdYtRw
p748
F627.0
sVpwJDMksfg_xuV2HAFnDFyA
p749
F609.0
sVttf13jziilUWI7PjWqGYYA
p750
F499.0
sViEhhS5Peocz-hl2MjNbdGg
p751
F224.0
sVKXR6NoiljhhlD11hXdSsig
p752
F331.0
sV03p8zXkWRammSu76kGzb6g
p753
F275.0
sVwiXl7s8X6kTZeDf_vV-Ylg
p754
F711.0
sVbiYat_l8BQrbXr5g__itZQ
p755
F522.0
sVSfY0jEFqBkrqq9bVi6P31Q
p756
F807.0
sVdHgtMr3HyF7CyGUS03xU1w
p757
F507.0
sVF0nFAY1Qi_7it_Q52n3nTw
p758
F39.0
sVDU_DRHEb27CF6OGEdl8S0g
p759
F220.0
sVKcfGrudzTcML2md1gwP53g
p760
F274.0
sVvvQhikDPjAzHfSLVgnFkPQ
p761
F50.0
sVWooY7yKHssQV1pf_I_gKpg
p762
F613.0
sVUzinZcZEaJKc07hBuHTcQw
p763
F118.0
sVCxUpdq8lbPSsbPro-lW0Mg
p764
F732.0
sVdPA1RBX8-pF54IQGvwpyRA
p765
F51.0
sVpw1Ss8M2_uiFfH4xDyKjtA
p766
F276.0
sVY2BLJqGAtX3Eb-3PGBkeMw
p767
F684.0
sVoeAhRa8yFa9jtrhaHnOyxQ
p768
F523.0
sVzekiCxtF-O8gF7agmUQm6g
p769
F313.0
sVLGfDJMfXDDj93YUfrEqEhA
p770
F352.0
sVpxspA49jdI2Z9RD_UD1A_A
p771
F396.0
sV-GwqsPQ2WC-dNkjOyJ_FcA
p772
F114.0
sVJ6E6NSpJqMBib9ydbchicg
p773
F30.0
sV4WhrC8_ZQwYxwlIyEt_fJg
p774
F597.0
sV9gvBIH9QnxiOzeJOhlrzLg
p775
F796.0
sV97JTwCnKnyTHpr6fp-sNdA
p776
F178.0
sV5GWF71ZkWe8bYFm8prasAw
p777
F444.0
sVNvIqUNTjN5N_7cbHWCJwRw
p778
F199.0
sVc6hXGcfLjW_hLeZEibbfQg
p779
F423.0
sV1-UXAFmZILDj_orrac7GPA
p780
F465.0
sV0sGiC_VQubXxFEkg-OLqyw
p781
F528.0
sVltRp9UX2yV4MwHGQLhJkUQ
p782
F513.0
sVdM9WWt-uMcSdAYBglSrbkw
p783
F278.0
sVccIa9Xj2r8lFnYB7seE5LA
p784
F552.0
sVR9UNH0rb3a_glQlk4ylKCw
p785
F45.0
sV2p4fflfxXmntSFndrD6RQg
p786
F569.0
sV_iCnJldXQnnriImRjVX8aA
p787
F378.0
sVOWFcHwB6AWEDA5nb9bFRZQ
p788
F749.0
sVDfj_oKiwTw_U7qsAKOZsbw
p789
F668.0
sVMqj9KWq5qGIqoVONjAFLHA
p790
F676.0
sVxYmJTCC4GowUQRsn-q0ZvA
p791
F660.0
sVeQw2VBQX0P71q_DLKMegaA
p792
F284.0
sVoyWRUMX7b2aNwzdvg0tneg
p793
F801.0
sVUfLGgjd6UExBVZb6JRJiQA
p794
F217.0
sVIJUK09nIK5HL091537Jhgg
p795
F350.0
sVAj5lcLOtUK1vnib8N6q-fQ
p796
F626.0
sVIY8cvV2SQuhJjKhRW68tFw
p797
F28.0
sVrzB7X6rJckrK4kzSA3Dqng
p798
F810.0
sVYE3F5cZTR_xBGZC1VdRy2g
p799
F152.0
sV4fYVFlntFi0YIFiYhEaQXQ
p800
F155.0
sVq9fFuyFouU8LMb1OG9pSdg
p801
F586.0
sVWLE_sZQm2k0yE1rmStp_Eg
p802
F64.0
sVeLdRbA_hHQUR6K3mqaB5yA
p803
F198.0
sV9crBgCYxwxiz0Uu2ySYpdA
p804
F624.0
sVNeYPCyHw0Tp67N1ebDCnjw
p805
F78.0
sVN3J-41OHb87d-d395bMDmQ
p806
F161.0
sVXUMsZZP1KsubKmj7wCeJ5Q
p807
F361.0
sV8PXbCnUQiaZYqYZ_c0RfxQ
p808
F240.0
sVKkNe4YQgMDXQ6-pkAkSiPg
p809
F486.0
sVZJ7-5WkpzphxtfMlleP2Iw
p810
F348.0
sVM492mUXwhtW-hU5ydHFFQQ
p811
F254.0
sV_yTpnxUb0ygqrUd1_R0ERg
p812
F547.0
sVcHsRQYM1mQtiitUsXYG3XQ
p813
F543.0
sVXFDF4Qg5DH5pSdKR4feUWA
p814
F674.0
sVbJ5CG5cBguo09dqLFTyHjw
p815
F68.0
sVUCOgYSDaoo0wt9STTiA_SQ
p816
F401.0
sVyuFHrb8YQtVuzu0eEXvJtA
p817
F34.0
sVR0_xrmyTTxcPqLa_eOMu3Q
p818
F809.0
sVrXvsM4vsvrhmLKXu10HRbQ
p819
F603.0
sVyNz6YWwxNUI_ekxZvk3Hdg
p820
F782.0
sVTNNRmOheG5PFV7qXop151A
p821
F470.0
sVL53-Hbjq43H_gorTklctYg
p822
F805.0
s.