(dp0
F0.0
(lp1
F1286.0
aF881.0
aF1408.0
aF1324.0
aF599.0
aF587.0
aF773.0
aF615.0
aF718.0
aF509.0
aF739.0
aF1180.0
aF416.0
aF1047.0
aF782.0
aF73.0
aF709.0
aF801.0
aF109.0
aF698.0
aF1330.0
aF967.0
aF941.0
aF1391.0
aF876.0
aF400.0
aF1245.0
aF975.0
aF141.0
aF448.0
aF1115.0
aF1069.0
aF345.0
aF652.0
aF742.0
aF148.0
aF266.0
aF622.0
aF366.0
aF65.0
aF545.0
aF738.0
aF28.0
aF1374.0
aF1111.0
aF1293.0
aF1008.0
aF1373.0
aF988.0
aF362.0
aF131.0
aF521.0
aF1366.0
aF1045.0
aF86.0
aF216.0
aF1176.0
aF1249.0
aF236.0
aF548.0
aF583.0
aF206.0
aF692.0
aF313.0
aF8.0
aF1394.0
aF404.0
aF947.0
aF610.0
aF18.0
aF1256.0
aF842.0
aF588.0
aF1175.0
aF1203.0
aF1338.0
aF1015.0
aF1313.0
aF904.0
aF812.0
aF418.0
aF452.0
aF514.0
aF778.0
aF1096.0
aF1216.0
aF51.0
aF697.0
aF1168.0
aF175.0
aF571.0
aF614.0
aF1282.0
aF1143.0
aF26.0
aF188.0
aF861.0
aF828.0
aF553.0
aF535.0
aF762.0
aF227.0
aF1392.0
aF645.0
aF712.0
aF547.0
aF993.0
aF981.0
aF613.0
aF512.0
aF930.0
aF646.0
aF534.0
aF1334.0
aF1400.0
aF488.0
aF225.0
aF768.0
aF365.0
aF900.0
aF1128.0
aF420.0
aF194.0
aF888.0
aF867.0
aF182.0
aF1082.0
aF271.0
aF495.0
aF409.0
aF191.0
aF1118.0
aF92.0
aF84.0
aF751.0
aF757.0
aF678.0
aF316.0
aF464.0
aF667.0
aF1194.0
aF1056.0
aF760.0
aF1091.0
aF724.0
aF1355.0
aF361.0
aF835.0
aF1051.0
aF1409.0
aF113.0
aF962.0
aF1058.0
aF494.0
aF935.0
aF415.0
aF761.0
aF427.0
aF634.0
aF486.0
aF301.0
aF1107.0
aF405.0
aF282.0
aF1067.0
aF703.0
aF340.0
aF909.0
aF597.0
aF480.0
aF1077.0
aF119.0
aF824.0
aF957.0
aF537.0
aF144.0
aF1152.0
aF769.0
aF753.0
aF523.0
aF1403.0
aF325.0
aF538.0
aF640.0
aF1054.0
aF794.0
aF870.0
aF437.0
aF1369.0
aF1157.0
aF1217.0
aF844.0
aF382.0
aF682.0
aF582.0
aF247.0
aF147.0
aF1026.0
aF318.0
aF611.0
aF902.0
aF1196.0
aF14.0
aF1300.0
aF490.0
aF0.0
aF469.0
aF94.0
aF811.0
aF399.0
aF715.0
aF1302.0
aF822.0
aF467.0
aF1135.0
aF522.0
aF675.0
aF1396.0
aF1103.0
aF1030.0
aF79.0
aF280.0
aF248.0
aF268.0
aF287.0
aF1034.0
aF319.0
aF91.0
aF198.0
aF265.0
aF242.0
aF619.0
aF772.0
aF264.0
aF195.0
aF991.0
aF815.0
aF96.0
aF777.0
aF23.0
aF354.0
aF578.0
aF832.0
aF524.0
aF1020.0
aF562.0
aF41.0
aF1257.0
aF299.0
aF1116.0
aF632.0
aF520.0
aF114.0
aF367.0
aF31.0
aF42.0
aF866.0
aF841.0
aF845.0
aF1035.0
aF186.0
aF1204.0
aF34.0
aF759.0
aF1227.0
aF155.0
aF1278.0
aF107.0
aF915.0
aF1346.0
aF894.0
aF869.0
asF1.0
(lp2
F755.0
aF1283.0
aF333.0
aF809.0
aF217.0
aF12.0
aF1134.0
aF825.0
aF1180.0
aF275.0
aF1047.0
aF330.0
aF782.0
aF1315.0
aF542.0
aF681.0
aF709.0
aF386.0
aF85.0
aF1032.0
aF160.0
aF1350.0
aF1232.0
aF803.0
aF713.0
aF471.0
aF411.0
aF1292.0
aF1267.0
aF545.0
aF568.0
aF1207.0
aF1374.0
aF1111.0
aF1293.0
aF1008.0
aF1277.0
aF19.0
aF810.0
aF1411.0
aF1094.0
aF600.0
aF860.0
aF1366.0
aF656.0
aF402.0
aF983.0
aF1176.0
aF548.0
aF626.0
aF403.0
aF673.0
aF532.0
aF831.0
aF1305.0
aF947.0
aF955.0
aF1256.0
aF1124.0
aF903.0
aF1153.0
aF1084.0
aF257.0
aF426.0
aF623.0
aF298.0
aF842.0
aF1015.0
aF904.0
aF183.0
aF631.0
aF1140.0
aF971.0
aF29.0
aF438.0
aF418.0
aF413.0
aF514.0
aF778.0
aF697.0
aF710.0
aF1388.0
aF1168.0
aF1148.0
aF877.0
aF677.0
aF1044.0
aF1007.0
aF1248.0
aF312.0
aF1156.0
aF219.0
aF1291.0
aF1365.0
aF309.0
aF553.0
aF98.0
aF966.0
aF661.0
aF984.0
aF1392.0
aF1099.0
aF816.0
aF501.0
aF432.0
aF712.0
aF965.0
aF993.0
aF981.0
aF613.0
aF1331.0
aF1281.0
aF512.0
aF1399.0
aF1328.0
aF534.0
aF225.0
aF1173.0
aF365.0
aF420.0
aF1048.0
aF194.0
aF719.0
aF888.0
aF499.0
aF350.0
aF129.0
aF667.0
aF1214.0
aF213.0
aF1402.0
aF1056.0
aF760.0
aF670.0
aF724.0
aF1344.0
aF1355.0
aF378.0
aF361.0
aF835.0
aF872.0
aF750.0
aF1009.0
aF102.0
aF973.0
aF1161.0
aF1058.0
aF427.0
aF898.0
aF356.0
aF1139.0
aF1357.0
aF385.0
aF282.0
aF1067.0
aF134.0
aF340.0
aF1093.0
aF1152.0
aF523.0
aF1403.0
aF325.0
aF538.0
aF658.0
aF640.0
aF986.0
aF88.0
aF1297.0
aF1250.0
aF1090.0
aF554.0
aF382.0
aF682.0
aF1146.0
aF1026.0
aF1376.0
aF902.0
aF1189.0
aF94.0
aF197.0
aF811.0
aF334.0
aF822.0
aF650.0
aF838.0
aF467.0
aF215.0
aF1274.0
aF100.0
aF229.0
aF1242.0
aF1387.0
aF1030.0
aF190.0
aF248.0
aF848.0
aF428.0
aF498.0
aF484.0
aF1017.0
aF125.0
aF242.0
aF619.0
aF772.0
aF1341.0
aF1040.0
aF815.0
aF913.0
aF1121.0
aF1037.0
aF524.0
aF433.0
aF1298.0
aF632.0
aF520.0
aF367.0
aF181.0
aF473.0
aF31.0
aF478.0
aF1025.0
aF1204.0
aF1024.0
aF1278.0
aF212.0
aF915.0
aF1123.0
aF894.0
asF2.0
(lp3
F684.0
aF214.0
aF830.0
aF840.0
aF1286.0
aF654.0
aF664.0
aF996.0
aF1222.0
aF68.0
aF509.0
aF739.0
aF343.0
aF1170.0
aF328.0
aF416.0
aF493.0
aF1042.0
aF847.0
aF940.0
aF967.0
aF1097.0
aF461.0
aF386.0
aF159.0
aF111.0
aF606.0
aF1269.0
aF1405.0
aF1381.0
aF116.0
aF545.0
aF1100.0
aF286.0
aF1014.0
aF953.0
aF448.0
aF1069.0
aF417.0
aF348.0
aF1065.0
aF65.0
aF720.0
aF366.0
aF1292.0
aF525.0
aF232.0
aF644.0
aF139.0
aF28.0
aF1031.0
aF924.0
aF1374.0
aF598.0
aF596.0
aF988.0
aF362.0
aF274.0
aF1260.0
aF50.0
aF27.0
aF577.0
aF727.0
aF436.0
aF1002.0
aF1335.0
aF515.0
aF470.0
aF1316.0
aF612.0
aF584.0
aF955.0
aF903.0
aF842.0
aF1084.0
aF101.0
aF1338.0
aF925.0
aF779.0
aF296.0
aF1211.0
aF418.0
aF1397.0
aF778.0
aF865.0
aF1096.0
aF697.0
aF710.0
aF1318.0
aF614.0
aF1282.0
aF635.0
aF1291.0
aF513.0
aF762.0
aF98.0
aF661.0
aF984.0
aF276.0
aF645.0
aF950.0
aF816.0
aF613.0
aF250.0
aF245.0
aF813.0
aF579.0
aF225.0
aF728.0
aF900.0
aF1048.0
aF194.0
aF570.0
aF888.0
aF1385.0
aF1231.0
aF1369.0
aF271.0
aF92.0
aF201.0
aF84.0
aF464.0
aF37.0
aF1347.0
aF6.0
aF1214.0
aF479.0
aF1056.0
aF760.0
aF942.0
aF835.0
aF1409.0
aF1129.0
aF973.0
aF288.0
aF761.0
aF398.0
aF427.0
aF796.0
aF356.0
aF1398.0
aF703.0
aF134.0
aF605.0
aF733.0
aF1046.0
aF824.0
aF937.0
aF537.0
aF769.0
aF749.0
aF538.0
aF658.0
aF1358.0
aF985.0
aF849.0
aF1054.0
aF609.0
aF870.0
aF437.0
aF1090.0
aF1157.0
aF844.0
aF382.0
aF682.0
aF1306.0
aF1219.0
aF611.0
aF1196.0
aF14.0
aF241.0
aF185.0
aF792.0
aF281.0
aF153.0
aF1081.0
aF1302.0
aF1356.0
aF100.0
aF522.0
aF1387.0
aF1103.0
aF1030.0
aF280.0
aF390.0
aF1041.0
aF1120.0
aF1312.0
aF319.0
aF855.0
aF1053.0
aF337.0
aF668.0
aF198.0
aF223.0
aF265.0
aF161.0
aF120.0
aF991.0
aF815.0
aF602.0
aF354.0
aF41.0
aF1226.0
aF258.0
aF1116.0
aF632.0
aF567.0
aF31.0
aF866.0
aF196.0
aF1109.0
aF1022.0
aF1259.0
aF107.0
aF864.0
aF212.0
aF1122.0
aF451.0
asF3.0
(lp4
F214.0
aF821.0
aF763.0
aF253.0
aF200.0
aF1149.0
aF1266.0
aF164.0
aF44.0
aF592.0
aF820.0
aF718.0
aF1289.0
aF1066.0
aF1114.0
aF889.0
aF507.0
aF275.0
aF174.0
aF73.0
aF1262.0
aF149.0
aF1184.0
aF251.0
aF1064.0
aF1263.0
aF834.0
aF1185.0
aF310.0
aF3.0
aF311.0
aF1100.0
aF1391.0
aF987.0
aF713.0
aF620.0
aF652.0
aF546.0
aF1013.0
aF604.0
aF1117.0
aF232.0
aF226.0
aF28.0
aF193.0
aF468.0
aF140.0
aF39.0
aF961.0
aF370.0
aF27.0
aF1094.0
aF600.0
aF555.0
aF580.0
aF89.0
aF472.0
aF380.0
aF633.0
aF922.0
aF62.0
aF577.0
aF1354.0
aF1004.0
aF236.0
aF206.0
aF626.0
aF1080.0
aF550.0
aF831.0
aF56.0
aF1205.0
aF612.0
aF404.0
aF184.0
aF610.0
aF896.0
aF230.0
aF1401.0
aF133.0
aF426.0
aF853.0
aF239.0
aF911.0
aF1112.0
aF80.0
aF653.0
aF1203.0
aF1363.0
aF1163.0
aF879.0
aF410.0
aF998.0
aF413.0
aF1397.0
aF697.0
aF1349.0
aF291.0
aF1168.0
aF877.0
aF1089.0
aF858.0
aF699.0
aF453.0
aF1291.0
aF1172.0
aF787.0
aF123.0
aF1237.0
aF762.0
aF210.0
aF518.0
aF923.0
aF1322.0
aF1392.0
aF816.0
aF712.0
aF1200.0
aF964.0
aF732.0
aF391.0
aF150.0
aF768.0
aF570.0
aF1231.0
aF944.0
aF59.0
aF495.0
aF643.0
aF744.0
aF252.0
aF1191.0
aF1083.0
aF711.0
aF48.0
aF43.0
aF445.0
aF154.0
aF1327.0
aF607.0
aF706.0
aF549.0
aF724.0
aF688.0
aF364.0
aF835.0
aF457.0
aF973.0
aF1161.0
aF494.0
aF1238.0
aF246.0
aF352.0
aF282.0
aF1223.0
aF909.0
aF648.0
aF22.0
aF1019.0
aF523.0
aF1403.0
aF968.0
aF70.0
aF1145.0
aF1390.0
aF372.0
aF870.0
aF897.0
aF297.0
aF1090.0
aF682.0
aF1219.0
aF963.0
aF628.0
aF559.0
aF166.0
aF215.0
aF946.0
aF883.0
aF261.0
aF979.0
aF91.0
aF71.0
aF771.0
aF69.0
aF120.0
aF777.0
aF758.0
aF1.0
aF338.0
aF130.0
aF1284.0
aF473.0
aF180.0
aF329.0
aF186.0
aF1204.0
aF371.0
aF627.0
aF915.0
aF97.0
aF869.0
asF4.0
(lp5
F214.0
aF1286.0
aF881.0
aF253.0
aF1149.0
aF497.0
aF476.0
aF718.0
aF557.0
aF1066.0
aF504.0
aF509.0
aF739.0
aF1180.0
aF1114.0
aF889.0
aF416.0
aF1320.0
aF507.0
aF493.0
aF1047.0
aF782.0
aF174.0
aF394.0
aF1368.0
aF1074.0
aF1011.0
aF709.0
aF801.0
aF251.0
aF834.0
aF320.0
aF754.0
aF1179.0
aF269.0
aF1386.0
aF386.0
aF400.0
aF541.0
aF1232.0
aF525.0
aF232.0
aF874.0
aF1267.0
aF738.0
aF28.0
aF596.0
aF988.0
aF362.0
aF1260.0
aF961.0
aF25.0
aF868.0
aF581.0
aF922.0
aF1225.0
aF402.0
aF577.0
aF127.0
aF24.0
aF456.0
aF1348.0
aF347.0
aF237.0
aF1080.0
aF550.0
aF586.0
aF692.0
aF313.0
aF254.0
aF584.0
aF53.0
aF610.0
aF1141.0
aF302.0
aF588.0
aF257.0
aF239.0
aF911.0
aF1364.0
aF779.0
aF172.0
aF438.0
aF1321.0
aF52.0
aF413.0
aF1397.0
aF778.0
aF128.0
aF1096.0
aF697.0
aF435.0
aF877.0
aF614.0
aF743.0
aF123.0
aF162.0
aF518.0
aF98.0
aF984.0
aF1392.0
aF40.0
aF613.0
aF964.0
aF930.0
aF245.0
aF387.0
aF488.0
aF1128.0
aF1016.0
aF1231.0
aF59.0
aF495.0
aF191.0
aF744.0
aF1118.0
aF1010.0
aF601.0
aF1188.0
aF678.0
aF252.0
aF464.0
aF408.0
aF1056.0
aF928.0
aF440.0
aF835.0
aF457.0
aF157.0
aF494.0
aF1238.0
aF288.0
aF415.0
aF427.0
aF898.0
aF385.0
aF134.0
aF480.0
aF22.0
aF824.0
aF957.0
aF1019.0
aF814.0
aF144.0
aF70.0
aF163.0
aF794.0
aF1369.0
aF1157.0
aF1217.0
aF844.0
aF682.0
aF1026.0
aF528.0
aF318.0
aF1219.0
aF611.0
aF628.0
aF560.0
aF166.0
aF465.0
aF153.0
aF1081.0
aF572.0
aF215.0
aF946.0
aF1104.0
aF1367.0
aF1206.0
aF190.0
aF390.0
aF262.0
aF1034.0
aF912.0
aF69.0
aF195.0
aF1040.0
aF1121.0
aF578.0
aF299.0
aF463.0
aF1279.0
aF1116.0
aF130.0
aF181.0
aF473.0
aF31.0
aF781.0
aF481.0
aF1204.0
aF34.0
aF717.0
aF1024.0
aF397.0
aF1259.0
aF617.0
aF449.0
aF1346.0
aF341.0
aF894.0
aF869.0
asF5.0
(lp6
F654.0
aF1351.0
aF587.0
aF476.0
aF718.0
aF825.0
aF1170.0
aF1294.0
aF1047.0
aF836.0
aF801.0
aF698.0
aF11.0
aF940.0
aF1012.0
aF36.0
aF545.0
aF1391.0
aF1245.0
aF1105.0
aF1304.0
aF448.0
aF803.0
aF417.0
aF348.0
aF1311.0
aF65.0
aF1013.0
aF589.0
aF748.0
aF1374.0
aF1062.0
aF1293.0
aF362.0
aF565.0
aF33.0
aF1045.0
aF216.0
aF983.0
aF1348.0
aF158.0
aF586.0
aF692.0
aF313.0
aF1394.0
aF184.0
aF53.0
aF1256.0
aF903.0
aF842.0
aF1153.0
aF896.0
aF1175.0
aF298.0
aF1112.0
aF631.0
aF1211.0
aF1321.0
aF452.0
aF514.0
aF778.0
aF128.0
aF865.0
aF1216.0
aF697.0
aF1148.0
aF614.0
aF1248.0
aF1143.0
aF861.0
aF828.0
aF162.0
aF618.0
aF276.0
aF816.0
aF712.0
aF993.0
aF1200.0
aF17.0
aF512.0
aF813.0
aF306.0
aF534.0
aF1334.0
aF1400.0
aF1048.0
aF194.0
aF888.0
aF867.0
aF87.0
aF409.0
aF884.0
aF804.0
aF601.0
aF932.0
aF84.0
aF757.0
aF464.0
aF667.0
aF1056.0
aF178.0
aF1407.0
aF942.0
aF503.0
aF1355.0
aF361.0
aF1051.0
aF872.0
aF1288.0
aF288.0
aF398.0
aF634.0
aF244.0
aF486.0
aF301.0
aF385.0
aF321.0
aF703.0
aF340.0
aF1077.0
aF558.0
aF119.0
aF1019.0
aF537.0
aF144.0
aF1152.0
aF769.0
aF523.0
aF325.0
aF936.0
aF985.0
aF163.0
aF1297.0
aF609.0
aF1157.0
aF1217.0
aF682.0
aF147.0
aF1026.0
aF902.0
aF1233.0
aF1300.0
aF94.0
aF792.0
aF166.0
aF260.0
aF674.0
aF811.0
aF399.0
aF153.0
aF1068.0
aF790.0
aF467.0
aF1264.0
aF551.0
aF1242.0
aF1103.0
aF248.0
aF1120.0
aF1299.0
aF848.0
aF337.0
aF668.0
aF1193.0
aF484.0
aF1017.0
aF125.0
aF265.0
aF161.0
aF264.0
aF195.0
aF135.0
aF96.0
aF602.0
aF1121.0
aF1037.0
aF524.0
aF585.0
aF1279.0
aF1116.0
aF517.0
aF31.0
aF42.0
aF845.0
aF34.0
aF397.0
aF1253.0
aF1278.0
aF107.0
aF864.0
aF341.0
aF894.0
aF451.0
aF869.0
asF6.0
(lp7
F1208.0
aF593.0
aF487.0
aF253.0
aF587.0
aF1382.0
aF887.0
aF164.0
aF718.0
aF1289.0
aF907.0
aF739.0
aF1170.0
aF889.0
aF493.0
aF388.0
aF1368.0
aF267.0
aF1011.0
aF1150.0
aF1184.0
aF251.0
aF305.0
aF1330.0
aF1072.0
aF1263.0
aF834.0
aF671.0
aF3.0
aF1126.0
aF797.0
aF311.0
aF1100.0
aF1391.0
aF400.0
aF987.0
aF713.0
aF345.0
aF471.0
aF652.0
aF742.0
aF1013.0
aF892.0
aF546.0
aF232.0
aF1267.0
aF545.0
aF193.0
aF28.0
aF266.0
aF1374.0
aF596.0
aF974.0
aF131.0
aF25.0
aF1094.0
aF555.0
aF580.0
aF380.0
aF1181.0
aF922.0
aF1218.0
aF127.0
aF1354.0
aF659.0
aF1004.0
aF24.0
aF456.0
aF206.0
aF284.0
aF124.0
aF1080.0
aF470.0
aF56.0
aF404.0
aF1212.0
aF184.0
aF53.0
aF610.0
aF230.0
aF1401.0
aF302.0
aF896.0
aF863.0
aF426.0
aF623.0
aF853.0
aF239.0
aF1112.0
aF736.0
aF80.0
aF1203.0
aF879.0
aF971.0
aF697.0
aF1349.0
aF243.0
aF1044.0
aF858.0
aF743.0
aF1291.0
aF787.0
aF861.0
aF762.0
aF923.0
aF1322.0
aF1392.0
aF647.0
aF732.0
aF646.0
aF1237.0
aF488.0
aF944.0
aF59.0
aF1339.0
aF495.0
aF409.0
aF643.0
aF191.0
aF92.0
aF1083.0
aF1188.0
aF711.0
aF316.0
aF464.0
aF445.0
aF1327.0
aF607.0
aF707.0
aF724.0
aF1407.0
aF662.0
aF364.0
aF457.0
aF113.0
aF1288.0
aF1238.0
aF246.0
aF427.0
aF405.0
aF1223.0
aF480.0
aF22.0
aF753.0
aF672.0
aF523.0
aF1403.0
aF870.0
aF1369.0
aF1217.0
aF1285.0
aF844.0
aF1146.0
aF1219.0
aF628.0
aF559.0
aF490.0
aF1224.0
aF465.0
aF822.0
aF467.0
aF215.0
aF946.0
aF551.0
aF675.0
aF1206.0
aF883.0
aF912.0
aF491.0
aF771.0
aF69.0
aF198.0
aF758.0
aF1121.0
aF322.0
aF463.0
aF173.0
aF632.0
aF520.0
aF180.0
aF781.0
aF329.0
aF186.0
aF34.0
aF1227.0
aF397.0
aF371.0
aF915.0
aF1346.0
asF7.0
(lp8
F763.0
aF1286.0
aF253.0
aF66.0
aF1382.0
aF81.0
aF718.0
aF1066.0
aF793.0
aF739.0
aF616.0
aF889.0
aF569.0
aF1047.0
aF782.0
aF73.0
aF485.0
aF1262.0
aF1184.0
aF709.0
aF1330.0
aF834.0
aF103.0
aF320.0
aF629.0
aF310.0
aF1179.0
aF386.0
aF1391.0
aF400.0
aF277.0
aF345.0
aF1013.0
aF65.0
aF232.0
aF28.0
aF1374.0
aF131.0
aF140.0
aF1008.0
aF988.0
aF810.0
aF370.0
aF1094.0
aF580.0
aF380.0
aF402.0
aF1181.0
aF127.0
aF983.0
aF1348.0
aF206.0
aF532.0
aF1080.0
aF56.0
aF1205.0
aF612.0
aF584.0
aF302.0
aF184.0
aF53.0
aF947.0
aF610.0
aF1340.0
aF896.0
aF1084.0
aF863.0
aF257.0
aF1221.0
aF1112.0
aF736.0
aF1085.0
aF1203.0
aF368.0
aF1163.0
aF779.0
aF879.0
aF52.0
aF514.0
aF1096.0
aF177.0
aF1044.0
aF858.0
aF614.0
aF699.0
aF453.0
aF1291.0
aF787.0
aF123.0
aF762.0
aF1322.0
aF712.0
aF965.0
aF547.0
aF1200.0
aF647.0
aF512.0
aF307.0
aF646.0
aF1400.0
aF488.0
aF570.0
aF59.0
aF409.0
aF191.0
aF1118.0
aF92.0
aF757.0
aF1083.0
aF711.0
aF678.0
aF316.0
aF213.0
aF706.0
aF760.0
aF707.0
aF1091.0
aF724.0
aF1407.0
aF503.0
aF361.0
aF835.0
aF1359.0
aF113.0
aF1288.0
aF494.0
aF398.0
aF634.0
aF282.0
aF703.0
aF1077.0
aF1234.0
aF753.0
aF1403.0
aF794.0
aF897.0
aF1369.0
aF1217.0
aF318.0
aF1196.0
aF559.0
aF920.0
aF560.0
aF1224.0
aF166.0
aF153.0
aF13.0
aF822.0
aF352.0
aF215.0
aF1135.0
aF946.0
aF665.0
aF1396.0
aF1102.0
aF1206.0
aF280.0
aF883.0
aF261.0
aF979.0
aF491.0
aF602.0
aF777.0
aF1121.0
aF578.0
aF585.0
aF299.0
aF463.0
aF632.0
aF520.0
aF181.0
aF473.0
aF180.0
aF481.0
aF1204.0
aF34.0
aF397.0
aF1278.0
aF371.0
aF1259.0
aF915.0
aF341.0
aF97.0
asF8.0
(lp9
F821.0
aF285.0
aF1149.0
aF599.0
aF7.0
aF497.0
aF718.0
aF739.0
aF1294.0
aF1047.0
aF938.0
aF709.0
aF671.0
aF629.0
aF791.0
aF1179.0
aF1269.0
aF207.0
aF941.0
aF545.0
aF448.0
aF389.0
aF136.0
aF148.0
aF1073.0
aF266.0
aF1267.0
aF295.0
aF958.0
aF1374.0
aF1293.0
aF988.0
aF1201.0
aF1094.0
aF1366.0
aF472.0
aF216.0
aF656.0
aF1225.0
aF127.0
aF1176.0
aF583.0
aF206.0
aF403.0
aF908.0
aF313.0
aF642.0
aF745.0
aF1182.0
aF588.0
aF896.0
aF1112.0
aF736.0
aF687.0
aF1203.0
aF1015.0
aF1163.0
aF904.0
aF1211.0
aF812.0
aF514.0
aF778.0
aF128.0
aF1096.0
aF780.0
aF1352.0
aF697.0
aF1148.0
aF1007.0
aF1167.0
aF1282.0
aF1143.0
aF188.0
aF861.0
aF519.0
aF227.0
aF966.0
aF276.0
aF547.0
aF993.0
aF613.0
aF512.0
aF813.0
aF1334.0
aF488.0
aF770.0
aF1128.0
aF856.0
aF846.0
aF1082.0
aF409.0
aF252.0
aF757.0
aF678.0
aF667.0
aF129.0
aF6.0
aF1214.0
aF1327.0
aF724.0
aF942.0
aF1355.0
aF361.0
aF1359.0
aF157.0
aF1238.0
aF288.0
aF597.0
aF957.0
aF1152.0
aF325.0
aF1390.0
aF1192.0
aF163.0
aF870.0
aF1157.0
aF844.0
aF682.0
aF582.0
aF318.0
aF1219.0
aF241.0
aF1300.0
aF469.0
aF1224.0
aF399.0
aF715.0
aF838.0
aF467.0
aF1274.0
aF1135.0
aF946.0
aF551.0
aF1367.0
aF1242.0
aF1103.0
aF280.0
aF248.0
aF1312.0
aF268.0
aF138.0
aF407.0
aF848.0
aF287.0
aF337.0
aF912.0
aF491.0
aF484.0
aF977.0
aF198.0
aF125.0
aF619.0
aF772.0
aF1341.0
aF991.0
aF602.0
aF1092.0
aF578.0
aF524.0
aF1020.0
aF41.0
aF1226.0
aF258.0
aF1298.0
aF181.0
aF473.0
aF781.0
aF841.0
aF329.0
aF1235.0
aF179.0
aF915.0
aF449.0
aF341.0
asF9.0
(lp10
F830.0
aF1286.0
aF466.0
aF203.0
aF881.0
aF587.0
aF1382.0
aF886.0
aF44.0
aF820.0
aF718.0
aF557.0
aF739.0
aF1170.0
aF493.0
aF569.0
aF782.0
aF1042.0
aF1368.0
aF1150.0
aF709.0
aF573.0
aF847.0
aF834.0
aF629.0
aF754.0
aF1100.0
aF1391.0
aF987.0
aF574.0
aF927.0
aF1013.0
aF266.0
aF232.0
aF99.0
aF295.0
aF28.0
aF568.0
aF850.0
aF958.0
aF974.0
aF1171.0
aF1260.0
aF961.0
aF555.0
aF580.0
aF127.0
aF1372.0
aF402.0
aF1181.0
aF508.0
aF1225.0
aF1354.0
aF5.0
aF983.0
aF456.0
aF612.0
aF302.0
aF1326.0
aF1212.0
aF53.0
aF947.0
aF72.0
aF842.0
aF896.0
aF1332.0
aF911.0
aF1221.0
aF1364.0
aF1085.0
aF1071.0
aF1203.0
aF1363.0
aF1163.0
aF779.0
aF879.0
aF971.0
aF438.0
aF52.0
aF1397.0
aF1096.0
aF1349.0
aF614.0
aF699.0
aF123.0
aF309.0
aF1271.0
aF519.0
aF923.0
aF613.0
aF647.0
aF391.0
aF930.0
aF245.0
aF1400.0
aF488.0
aF1128.0
aF1048.0
aF482.0
aF350.0
aF495.0
aF1118.0
aF757.0
aF1188.0
aF316.0
aF213.0
aF1327.0
aF760.0
aF178.0
aF660.0
aF724.0
aF503.0
aF1344.0
aF440.0
aF364.0
aF457.0
aF494.0
aF1238.0
aF427.0
aF634.0
aF244.0
aF385.0
aF703.0
aF22.0
aF256.0
aF523.0
aF1403.0
aF1258.0
aF936.0
aF1390.0
aF1023.0
aF1217.0
aF844.0
aF1026.0
aF528.0
aF318.0
aF335.0
aF1224.0
aF94.0
aF1081.0
aF790.0
aF467.0
aF215.0
aF1135.0
aF946.0
aF551.0
aF675.0
aF1030.0
aF1206.0
aF995.0
aF261.0
aF91.0
aF912.0
aF71.0
aF491.0
aF195.0
aF1040.0
aF602.0
aF1121.0
aF322.0
aF578.0
aF41.0
aF1298.0
aF632.0
aF520.0
aF717.0
aF397.0
aF1278.0
aF1259.0
aF915.0
aF449.0
asF10.0
(lp11
F32.0
aF1307.0
aF587.0
aF557.0
aF509.0
aF328.0
aF416.0
aF1320.0
aF174.0
aF689.0
aF11.0
aF847.0
aF940.0
aF967.0
aF1386.0
aF545.0
aF803.0
aF60.0
aF411.0
aF106.0
aF1267.0
aF1374.0
aF1111.0
aF1293.0
aF988.0
aF50.0
aF33.0
aF875.0
aF843.0
aF216.0
aF980.0
aF1249.0
aF436.0
aF543.0
aF74.0
aF1147.0
aF313.0
aF302.0
aF1212.0
aF1256.0
aF1268.0
aF396.0
aF1015.0
aF1175.0
aF863.0
aF1364.0
aF1112.0
aF904.0
aF1203.0
aF971.0
aF812.0
aF1397.0
aF452.0
aF778.0
aF780.0
aF697.0
aF571.0
aF1248.0
aF1282.0
aF188.0
aF263.0
aF553.0
aF227.0
aF231.0
aF618.0
aF276.0
aF1099.0
aF1410.0
aF547.0
aF512.0
aF250.0
aF534.0
aF1173.0
aF728.0
aF900.0
aF1048.0
aF194.0
aF888.0
aF1385.0
aF1369.0
aF884.0
aF92.0
aF601.0
aF201.0
aF751.0
aF679.0
aF757.0
aF228.0
aF667.0
aF479.0
aF61.0
aF1194.0
aF1056.0
aF1344.0
aF361.0
aF750.0
aF113.0
aF157.0
aF1288.0
aF288.0
aF398.0
aF115.0
aF356.0
aF385.0
aF1067.0
aF595.0
aF703.0
aF909.0
aF597.0
aF119.0
aF537.0
aF144.0
aF1152.0
aF769.0
aF766.0
aF640.0
aF342.0
aF1217.0
aF382.0
aF682.0
aF582.0
aF247.0
aF147.0
aF1026.0
aF1300.0
aF469.0
aF1224.0
aF792.0
aF49.0
aF166.0
aF811.0
aF399.0
aF715.0
aF1302.0
aF467.0
aF1274.0
aF522.0
aF551.0
aF1242.0
aF1387.0
aF248.0
aF268.0
aF1053.0
aF1028.0
aF71.0
aF484.0
aF69.0
aF265.0
aF918.0
aF161.0
aF1341.0
aF195.0
aF602.0
aF23.0
aF354.0
aF1037.0
aF524.0
aF1395.0
aF41.0
aF1279.0
aF31.0
aF841.0
aF845.0
aF34.0
aF179.0
aF107.0
aF894.0
aF451.0
aF869.0
asF11.0
(lp12
F755.0
aF1286.0
aF497.0
aF304.0
aF1209.0
aF383.0
aF506.0
aF1047.0
aF829.0
aF782.0
aF73.0
aF149.0
aF709.0
aF698.0
aF11.0
aF967.0
aF474.0
aF754.0
aF207.0
aF1350.0
aF686.0
aF411.0
aF1073.0
aF752.0
aF366.0
aF530.0
aF1063.0
aF232.0
aF28.0
aF193.0
aF1031.0
aF564.0
aF33.0
aF274.0
aF1260.0
aF1411.0
aF1094.0
aF633.0
aF95.0
aF784.0
aF1354.0
aF543.0
aF206.0
aF1002.0
aF532.0
aF56.0
aF313.0
aF1005.0
aF1256.0
aF896.0
aF903.0
aF853.0
aF904.0
aF812.0
aF418.0
aF514.0
aF778.0
aF128.0
aF1044.0
aF326.0
aF1143.0
aF1156.0
aF723.0
aF533.0
aF309.0
aF553.0
aF618.0
aF661.0
aF1392.0
aF276.0
aF645.0
aF712.0
aF547.0
aF919.0
aF981.0
aF613.0
aF87.0
aF646.0
aF1400.0
aF365.0
aF194.0
aF856.0
aF90.0
aF409.0
aF827.0
aF884.0
aF201.0
aF751.0
aF1191.0
aF724.0
aF1091.0
aF1355.0
aF361.0
aF4.0
aF102.0
aF1058.0
aF415.0
aF398.0
aF356.0
aF1379.0
aF597.0
aF22.0
aF957.0
aF937.0
aF814.0
aF523.0
aF538.0
aF57.0
aF640.0
aF1358.0
aF1157.0
aF1026.0
aF1376.0
aF611.0
aF14.0
aF490.0
aF469.0
aF651.0
aF308.0
aF467.0
aF1135.0
aF946.0
aF1264.0
aF675.0
aF229.0
aF1387.0
aF1102.0
aF1314.0
aF1030.0
aF1206.0
aF248.0
aF319.0
aF912.0
aF491.0
aF1251.0
aF223.0
aF265.0
aF918.0
aF161.0
aF619.0
aF772.0
aF959.0
aF195.0
aF815.0
aF602.0
aF524.0
aF1116.0
aF880.0
aF31.0
aF42.0
aF781.0
aF1204.0
aF397.0
aF1259.0
aF1158.0
aF894.0
aF869.0
asF12.0
(lp13
F830.0
aF1286.0
aF466.0
aF323.0
aF859.0
aF881.0
aF487.0
aF7.0
aF587.0
aF552.0
aF1382.0
aF44.0
aF493.0
aF394.0
aF1368.0
aF671.0
aF103.0
aF310.0
aF709.0
aF754.0
aF1269.0
aF1100.0
aF286.0
aF1391.0
aF400.0
aF1115.0
aF927.0
aF1013.0
aF1267.0
aF99.0
aF28.0
aF266.0
aF1008.0
aF596.0
aF974.0
aF1171.0
aF961.0
aF131.0
aF1411.0
aF580.0
aF868.0
aF922.0
aF62.0
aF402.0
aF577.0
aF1354.0
aF5.0
aF590.0
aF24.0
aF206.0
aF692.0
aF254.0
aF1205.0
aF1326.0
aF1212.0
aF53.0
aF947.0
aF302.0
aF101.0
aF911.0
aF1364.0
aF1112.0
aF687.0
aF1203.0
aF779.0
aF52.0
aF514.0
aF1168.0
aF1044.0
aF326.0
aF204.0
aF535.0
aF762.0
aF519.0
aF162.0
aF518.0
aF98.0
aF923.0
aF712.0
aF502.0
aF245.0
aF1237.0
aF488.0
aF1128.0
aF482.0
aF495.0
aF643.0
aF191.0
aF1010.0
aF92.0
aF711.0
aF252.0
aF1174.0
aF724.0
aF662.0
aF440.0
aF1288.0
aF246.0
aF427.0
aF634.0
aF405.0
aF385.0
aF282.0
aF1223.0
aF480.0
aF22.0
aF957.0
aF1019.0
aF256.0
aF1403.0
aF1258.0
aF968.0
aF936.0
aF70.0
aF818.0
aF1090.0
aF844.0
aF1146.0
aF628.0
aF1224.0
aF94.0
aF1081.0
aF946.0
aF1104.0
aF675.0
aF1206.0
aF995.0
aF1034.0
aF979.0
aF91.0
aF198.0
aF1121.0
aF322.0
aF520.0
aF1284.0
aF180.0
aF781.0
aF397.0
aF617.0
aF449.0
aF714.0
asF13.0
(lp14
F446.0
aF1286.0
aF881.0
aF253.0
aF64.0
aF587.0
aF1382.0
aF718.0
aF557.0
aF509.0
aF739.0
aF1047.0
aF1180.0
aF1170.0
aF889.0
aF507.0
aF709.0
aF109.0
aF355.0
aF1263.0
aF1097.0
aF1060.0
aF1179.0
aF545.0
aF1391.0
aF1245.0
aF1350.0
aF411.0
aF652.0
aF30.0
aF65.0
aF1013.0
aF1267.0
aF581.0
aF1225.0
aF302.0
aF53.0
aF947.0
aF842.0
aF588.0
aF1112.0
aF1163.0
aF779.0
aF879.0
aF438.0
aF778.0
aF1096.0
aF1168.0
aF677.0
aF861.0
aF535.0
aF1392.0
aF1213.0
aF547.0
aF1296.0
aF613.0
aF647.0
aF732.0
aF1281.0
aF512.0
aF245.0
aF930.0
aF1400.0
aF488.0
aF108.0
aF1369.0
aF1118.0
aF92.0
aF201.0
aF678.0
aF464.0
aF667.0
aF1214.0
aF213.0
aF760.0
aF724.0
aF1407.0
aF503.0
aF1344.0
aF1355.0
aF1409.0
aF157.0
aF1288.0
aF1238.0
aF415.0
aF398.0
aF634.0
aF486.0
aF1357.0
aF703.0
aF480.0
aF824.0
aF957.0
aF753.0
aF523.0
aF936.0
aF794.0
aF682.0
aF1026.0
aF1376.0
aF318.0
aF1219.0
aF1196.0
aF166.0
aF153.0
aF572.0
aF790.0
aF838.0
aF215.0
aF946.0
aF551.0
aF1030.0
aF1206.0
aF995.0
aF1120.0
aF261.0
aF287.0
aF912.0
aF242.0
aF959.0
aF195.0
aF913.0
aF602.0
aF578.0
aF433.0
aF1116.0
aF181.0
aF31.0
aF196.0
aF817.0
aF186.0
aF397.0
aF1259.0
aF234.0
aF915.0
aF1122.0
aF341.0
asF14.0
(lp15
F1408.0
aF1324.0
aF1294.0
aF773.0
aF615.0
aF718.0
aF1134.0
aF509.0
aF1047.0
aF416.0
aF836.0
aF847.0
aF85.0
aF1232.0
aF803.0
aF1065.0
aF1076.0
aF1374.0
aF1293.0
aF988.0
aF50.0
aF810.0
aF1366.0
aF843.0
aF577.0
aF1249.0
aF436.0
aF206.0
aF636.0
aF692.0
aF642.0
aF302.0
aF896.0
aF903.0
aF842.0
aF806.0
aF1364.0
aF298.0
aF1163.0
aF183.0
aF631.0
aF971.0
aF438.0
aF1211.0
aF812.0
aF514.0
aF780.0
aF1216.0
aF177.0
aF697.0
aF1148.0
aF283.0
aF204.0
aF861.0
aF518.0
aF966.0
aF1392.0
aF432.0
aF1099.0
aF816.0
aF712.0
aF547.0
aF919.0
aF194.0
aF800.0
aF888.0
aF678.0
aF932.0
aF757.0
aF464.0
aF667.0
aF1327.0
aF1056.0
aF760.0
aF662.0
aF1344.0
aF1355.0
aF835.0
aF1359.0
aF962.0
aF1058.0
aF288.0
aF415.0
aF486.0
aF1107.0
aF282.0
aF597.0
aF119.0
aF814.0
aF523.0
aF325.0
aF1297.0
aF1250.0
aF1157.0
aF382.0
aF682.0
aF1026.0
aF318.0
aF902.0
aF560.0
aF469.0
aF94.0
aF792.0
aF166.0
aF811.0
aF399.0
aF467.0
aF215.0
aF1309.0
aF268.0
aF1299.0
aF878.0
aF69.0
aF918.0
aF242.0
aF161.0
aF991.0
aF1246.0
aF602.0
aF1121.0
aF524.0
aF41.0
aF632.0
aF31.0
aF866.0
aF196.0
aF1035.0
aF1204.0
aF915.0
aF894.0
asF15.0
(lp16
F1351.0
aF64.0
aF773.0
aF476.0
aF509.0
aF1047.0
aF1029.0
aF20.0
aF2.0
aF474.0
aF3.0
aF1179.0
aF545.0
aF85.0
aF803.0
aF1239.0
aF28.0
aF1374.0
aF1062.0
aF1111.0
aF1411.0
aF1094.0
aF292.0
aF489.0
aF1218.0
aF236.0
aF548.0
aF158.0
aF1002.0
aF642.0
aF947.0
aF903.0
aF1153.0
aF1221.0
aF128.0
aF697.0
aF1148.0
aF1130.0
aF614.0
aF1143.0
aF762.0
aF98.0
aF641.0
aF1392.0
aF712.0
aF547.0
aF919.0
aF1331.0
aF512.0
aF813.0
aF1334.0
aF1328.0
aF534.0
aF365.0
aF807.0
aF420.0
aF194.0
aF856.0
aF1339.0
aF846.0
aF1369.0
aF191.0
aF884.0
aF678.0
aF757.0
aF667.0
aF1327.0
aF61.0
aF1056.0
aF1344.0
aF835.0
aF259.0
aF113.0
aF962.0
aF1058.0
aF398.0
aF115.0
aF634.0
aF486.0
aF282.0
aF703.0
aF558.0
aF119.0
aF538.0
aF1192.0
aF794.0
aF1090.0
aF844.0
aF682.0
aF1146.0
aF318.0
aF611.0
aF469.0
aF1224.0
aF399.0
aF715.0
aF1384.0
aF467.0
aF215.0
aF1274.0
aF1264.0
aF1242.0
aF1387.0
aF1396.0
aF1206.0
aF248.0
aF848.0
aF319.0
aF91.0
aF1183.0
aF71.0
aF1017.0
aF125.0
aF161.0
aF913.0
aF832.0
aF357.0
aF524.0
aF41.0
aF632.0
aF845.0
aF1278.0
aF107.0
aF234.0
aF915.0
aF1123.0
aF894.0
asF16.0
(lp17
F788.0
aF726.0
aF739.0
aF563.0
aF416.0
aF782.0
aF938.0
aF709.0
aF573.0
aF801.0
aF940.0
aF386.0
aF269.0
aF545.0
aF141.0
aF1069.0
aF1073.0
aF266.0
aF994.0
aF1031.0
aF1293.0
aF274.0
aF33.0
aF402.0
aF74.0
aF425.0
aF692.0
aF313.0
aF642.0
aF53.0
aF903.0
aF1175.0
aF1071.0
aF1096.0
aF779.0
aF514.0
aF778.0
aF128.0
aF571.0
aF83.0
aF1143.0
aF26.0
aF540.0
aF309.0
aF828.0
aF263.0
aF618.0
aF276.0
aF712.0
aF1281.0
aF512.0
aF38.0
aF534.0
aF225.0
aF365.0
aF194.0
aF1385.0
aF1369.0
aF271.0
aF409.0
aF884.0
aF201.0
aF757.0
aF228.0
aF1214.0
aF1194.0
aF1056.0
aF178.0
aF361.0
aF1359.0
aF1000.0
aF1243.0
aF427.0
aF634.0
aF1357.0
aF703.0
aF134.0
aF597.0
aF119.0
aF824.0
aF537.0
aF1152.0
aF769.0
aF538.0
aF658.0
aF640.0
aF1023.0
aF1090.0
aF1217.0
aF382.0
aF147.0
aF318.0
aF628.0
aF490.0
aF560.0
aF469.0
aF1224.0
aF399.0
aF467.0
aF1103.0
aF1030.0
aF995.0
aF287.0
aF819.0
aF120.0
aF772.0
aF602.0
aF777.0
aF354.0
aF578.0
aF832.0
aF524.0
aF562.0
aF75.0
aF1116.0
aF367.0
aF31.0
aF196.0
aF1259.0
aF1346.0
aF894.0
asF17.0
(lp18
F901.0
aF217.0
aF599.0
aF630.0
aF615.0
aF1047.0
aF416.0
aF782.0
aF1060.0
aF386.0
aF791.0
aF238.0
aF1391.0
aF30.0
aF106.0
aF366.0
aF1207.0
aF527.0
aF1293.0
aF988.0
aF379.0
aF414.0
aF454.0
aF1176.0
aF74.0
aF673.0
aF586.0
aF908.0
aF642.0
aF1394.0
aF1268.0
aF1084.0
aF623.0
aF1112.0
aF779.0
aF514.0
aF778.0
aF1352.0
aF1148.0
aF1156.0
aF1098.0
aF263.0
aF553.0
aF535.0
aF110.0
aF276.0
aF1213.0
aF993.0
aF1200.0
aF613.0
aF1331.0
aF245.0
aF1334.0
aF488.0
aF108.0
aF225.0
aF768.0
aF728.0
aF900.0
aF856.0
aF888.0
aF182.0
aF1369.0
aF884.0
aF1118.0
aF92.0
aF84.0
aF757.0
aF1214.0
aF1327.0
aF1402.0
aF1056.0
aF760.0
aF503.0
aF1355.0
aF361.0
aF872.0
aF113.0
aF703.0
aF597.0
aF1046.0
aF640.0
aF985.0
aF1390.0
aF1070.0
aF582.0
aF1026.0
aF902.0
aF1300.0
aF1224.0
aF260.0
aF399.0
aF1302.0
aF1274.0
aF946.0
aF675.0
aF1103.0
aF1299.0
aF198.0
aF639.0
aF264.0
aF135.0
aF96.0
aF602.0
aF421.0
aF1092.0
aF578.0
aF832.0
aF562.0
aF75.0
aF632.0
aF841.0
aF845.0
aF186.0
aF462.0
aF397.0
aF1259.0
aF107.0
aF1122.0
aF451.0
aF869.0
asF18.0
(lp19
F1165.0
aF830.0
aF1283.0
aF788.0
aF996.0
aF167.0
aF587.0
aF1408.0
aF666.0
aF615.0
aF1134.0
aF509.0
aF933.0
aF1294.0
aF416.0
aF1047.0
aF782.0
aF1315.0
aF689.0
aF506.0
aF109.0
aF606.0
aF1269.0
aF82.0
aF734.0
aF975.0
aF1304.0
aF448.0
aF136.0
aF99.0
aF545.0
aF266.0
aF1374.0
aF1111.0
aF50.0
aF1176.0
aF543.0
aF156.0
aF515.0
aF642.0
aF396.0
aF302.0
aF1084.0
aF812.0
aF452.0
aF514.0
aF1148.0
aF219.0
aF188.0
aF263.0
aF535.0
aF966.0
aF594.0
aF1099.0
aF993.0
aF1200.0
aF1331.0
aF1281.0
aF813.0
aF225.0
aF900.0
aF420.0
aF194.0
aF728.0
aF888.0
aF477.0
aF129.0
aF1214.0
aF1327.0
aF724.0
aF662.0
aF199.0
aF1355.0
aF1009.0
aF1288.0
aF761.0
aF1243.0
aF385.0
aF703.0
aF119.0
aF914.0
aF672.0
aF325.0
aF658.0
aF1369.0
aF1090.0
aF682.0
aF1300.0
aF399.0
aF715.0
aF1302.0
aF1135.0
aF522.0
aF287.0
aF319.0
aF1193.0
aF69.0
aF198.0
aF161.0
aF619.0
aF264.0
aF421.0
aF524.0
aF585.0
aF41.0
aF841.0
aF196.0
aF845.0
aF1025.0
aF741.0
aF202.0
asF19.0
(lp20
F593.0
aF203.0
aF333.0
aF200.0
aF1178.0
aF716.0
aF44.0
aF1095.0
aF476.0
aF126.0
aF509.0
aF1180.0
aF1114.0
aF889.0
aF416.0
aF507.0
aF1150.0
aF174.0
aF73.0
aF943.0
aF122.0
aF801.0
aF1072.0
aF1064.0
aF1263.0
aF629.0
aF1012.0
aF1185.0
aF3.0
aF1386.0
aF311.0
aF545.0
aF400.0
aF987.0
aF620.0
aF266.0
aF525.0
aF802.0
aF295.0
aF193.0
aF949.0
aF468.0
aF1260.0
aF370.0
aF1366.0
aF454.0
aF638.0
aF62.0
aF236.0
aF456.0
aF550.0
aF1212.0
aF610.0
aF230.0
aF1340.0
aF1084.0
aF133.0
aF239.0
aF1221.0
aF1364.0
aF1085.0
aF1338.0
aF879.0
aF998.0
aF1321.0
aF413.0
aF514.0
aF1168.0
aF1089.0
aF1007.0
aF743.0
aF1143.0
aF453.0
aF1172.0
aF1392.0
aF816.0
aF851.0
aF964.0
aF387.0
aF1016.0
aF495.0
aF191.0
aF252.0
aF1191.0
aF408.0
aF440.0
aF1359.0
aF113.0
aF973.0
aF909.0
aF814.0
aF1234.0
aF144.0
aF672.0
aF297.0
aF1285.0
aF963.0
aF628.0
aF166.0
aF467.0
aF675.0
aF1396.0
aF419.0
aF771.0
aF120.0
aF41.0
aF130.0
aF473.0
aF329.0
aF617.0
asF20.0
(lp21
F840.0
aF1133.0
aF1252.0
aF630.0
aF799.0
aF476.0
aF739.0
aF1294.0
aF20.0
aF791.0
aF754.0
aF208.0
aF1105.0
aF417.0
aF345.0
aF1240.0
aF748.0
aF1062.0
aF988.0
aF362.0
aF50.0
aF1006.0
aF1045.0
aF403.0
aF158.0
aF955.0
aF903.0
aF842.0
aF302.0
aF1364.0
aF690.0
aF1321.0
aF1361.0
aF514.0
aF778.0
aF697.0
aF447.0
aF1089.0
aF1143.0
aF618.0
aF661.0
aF1213.0
aF816.0
aF993.0
aF1200.0
aF813.0
aF306.0
aF225.0
aF1385.0
aF499.0
aF1082.0
aF87.0
aF84.0
aF751.0
aF1056.0
aF566.0
aF724.0
aF503.0
aF1344.0
aF1355.0
aF361.0
aF427.0
aF486.0
aF1125.0
aF1107.0
aF703.0
aF597.0
aF537.0
aF1234.0
aF1152.0
aF985.0
aF163.0
aF1297.0
aF55.0
aF342.0
aF1157.0
aF1217.0
aF147.0
aF1026.0
aF902.0
aF1300.0
aF94.0
aF792.0
aF399.0
aF715.0
aF572.0
aF215.0
aF551.0
aF675.0
aF1242.0
aF1206.0
aF395.0
aF69.0
aF125.0
aF265.0
aF619.0
aF264.0
aF578.0
aF1298.0
aF1116.0
aF632.0
aF845.0
aF1035.0
aF34.0
aF1227.0
aF627.0
aF339.0
asF21.0
(lp22
F253.0
aF1324.0
aF285.0
aF66.0
aF587.0
aF1382.0
aF1047.0
aF889.0
aF829.0
aF267.0
aF149.0
aF251.0
aF629.0
aF754.0
aF1391.0
aF1245.0
aF680.0
aF266.0
aF1117.0
aF1267.0
aF738.0
aF28.0
aF1374.0
aF131.0
aF39.0
aF988.0
aF961.0
aF380.0
aF508.0
aF1354.0
aF24.0
aF626.0
aF284.0
aF586.0
aF1205.0
aF1212.0
aF53.0
aF896.0
aF588.0
aF863.0
aF257.0
aF80.0
aF1071.0
aF687.0
aF1363.0
aF879.0
aF438.0
aF514.0
aF865.0
aF877.0
aF787.0
aF123.0
aF861.0
aF762.0
aF518.0
aF547.0
aF613.0
aF512.0
aF245.0
aF90.0
aF495.0
aF191.0
aF1118.0
aF92.0
aF751.0
aF757.0
aF154.0
aF408.0
aF760.0
aF670.0
aF724.0
aF688.0
aF1359.0
aF113.0
aF1238.0
aF246.0
aF634.0
aF480.0
aF22.0
aF824.0
aF523.0
aF1023.0
aF609.0
aF342.0
aF1369.0
aF1285.0
aF318.0
aF963.0
aF490.0
aF920.0
aF13.0
aF467.0
aF215.0
aF946.0
aF1314.0
aF1206.0
aF280.0
aF287.0
aF913.0
aF1121.0
aF578.0
aF524.0
aF181.0
aF915.0
aF894.0
asF22.0
(lp23
F763.0
aF446.0
aF1286.0
aF881.0
aF705.0
aF773.0
aF1198.0
aF401.0
aF910.0
aF889.0
aF829.0
aF1074.0
aF1330.0
aF310.0
aF386.0
aF876.0
aF400.0
aF713.0
aF652.0
aF1132.0
aF604.0
aF232.0
aF295.0
aF1031.0
aF1374.0
aF1008.0
aF140.0
aF1094.0
aF555.0
aF868.0
aF380.0
aF659.0
aF708.0
aF1080.0
aF56.0
aF254.0
aF612.0
aF1212.0
aF184.0
aF947.0
aF610.0
aF1401.0
aF133.0
aF1175.0
aF1332.0
aF1221.0
aF736.0
aF653.0
aF1071.0
aF1163.0
aF410.0
aF52.0
aF1044.0
aF1007.0
aF176.0
aF787.0
aF123.0
aF861.0
aF923.0
aF795.0
aF732.0
aF768.0
aF373.0
aF744.0
aF1083.0
aF678.0
aF607.0
aF707.0
aF1091.0
aF928.0
aF688.0
aF364.0
aF835.0
aF282.0
aF340.0
aF1077.0
aF968.0
aF163.0
aF437.0
aF897.0
aF342.0
aF611.0
aF963.0
aF559.0
aF352.0
aF522.0
aF665.0
aF1314.0
aF280.0
aF883.0
aF261.0
aF358.0
aF819.0
aF1040.0
aF777.0
aF758.0
aF578.0
aF832.0
aF58.0
aF632.0
aF114.0
aF473.0
aF186.0
aF155.0
aF371.0
asF23.0
(lp24
F1286.0
aF466.0
aF253.0
aF66.0
aF773.0
aF1382.0
aF889.0
aF782.0
aF1042.0
aF149.0
aF1184.0
aF251.0
aF1330.0
aF1391.0
aF400.0
aF713.0
aF232.0
aF1267.0
aF28.0
aF958.0
aF131.0
aF1094.0
aF555.0
aF580.0
aF380.0
aF1181.0
aF1354.0
aF456.0
aF124.0
aF1080.0
aF1205.0
aF302.0
aF184.0
aF53.0
aF947.0
aF610.0
aF230.0
aF1401.0
aF1175.0
aF257.0
aF1112.0
aF80.0
aF1096.0
aF1203.0
aF1163.0
aF879.0
aF514.0
aF710.0
aF1291.0
aF861.0
aF1237.0
aF762.0
aF1322.0
aF965.0
aF547.0
aF613.0
aF488.0
aF570.0
aF846.0
aF1339.0
aF191.0
aF744.0
aF751.0
aF1327.0
aF760.0
aF724.0
aF503.0
aF1355.0
aF1058.0
aF494.0
aF246.0
aF405.0
aF22.0
aF753.0
aF523.0
aF1390.0
aF1224.0
aF465.0
aF822.0
aF467.0
aF215.0
aF1135.0
aF1367.0
aF665.0
aF1030.0
aF1206.0
aF190.0
aF261.0
aF198.0
aF772.0
aF815.0
aF832.0
aF585.0
aF41.0
aF299.0
aF632.0
aF473.0
aF180.0
aF329.0
aF186.0
aF34.0
aF1227.0
aF155.0
aF915.0
asF24.0
(lp25
F1286.0
aF466.0
aF881.0
aF487.0
aF285.0
aF1149.0
aF587.0
aF476.0
aF820.0
aF718.0
aF1180.0
aF782.0
aF394.0
aF938.0
aF709.0
aF847.0
aF834.0
aF671.0
aF1185.0
aF310.0
aF754.0
aF269.0
aF1391.0
aF400.0
aF1115.0
aF345.0
aF574.0
aF927.0
aF1013.0
aF99.0
aF28.0
aF958.0
aF974.0
aF988.0
aF131.0
aF380.0
aF508.0
aF402.0
aF127.0
aF590.0
aF1176.0
aF24.0
aF624.0
aF692.0
aF313.0
aF1326.0
aF1212.0
aF184.0
aF53.0
aF610.0
aF842.0
aF302.0
aF911.0
aF1112.0
aF1377.0
aF687.0
aF1229.0
aF779.0
aF1021.0
aF349.0
aF1044.0
aF614.0
aF723.0
aF535.0
aF162.0
aF923.0
aF984.0
aF245.0
aF488.0
aF1128.0
aF191.0
aF1010.0
aF711.0
aF464.0
aF724.0
aF1407.0
aF246.0
aF427.0
aF634.0
aF385.0
aF1223.0
aF1258.0
aF936.0
aF1217.0
aF844.0
aF682.0
aF215.0
aF946.0
aF1206.0
aF995.0
aF484.0
aF1246.0
aF1121.0
aF322.0
aF524.0
aF520.0
aF1284.0
aF186.0
aF1227.0
aF397.0
aF1346.0
asF25.0
(lp26
F81.0
aF755.0
aF446.0
aF1286.0
aF203.0
aF726.0
aF1178.0
aF587.0
aF552.0
aF304.0
aF1209.0
aF886.0
aF739.0
aF1180.0
aF1114.0
aF1029.0
aF1320.0
aF829.0
aF507.0
aF493.0
aF709.0
aF847.0
aF1166.0
aF386.0
aF1391.0
aF65.0
aF266.0
aF1267.0
aF568.0
aF1374.0
aF988.0
aF1171.0
aF1366.0
aF127.0
aF586.0
aF908.0
aF56.0
aF1205.0
aF947.0
aF842.0
aF1254.0
aF1071.0
aF1203.0
aF998.0
aF1140.0
aF778.0
aF1007.0
aF326.0
aF1282.0
aF294.0
aF547.0
aF930.0
aF646.0
aF1231.0
aF350.0
aF1191.0
aF678.0
aF316.0
aF6.0
aF445.0
aF1327.0
aF760.0
aF724.0
aF1344.0
aF835.0
aF1058.0
aF246.0
aF427.0
aF377.0
aF898.0
aF1379.0
aF824.0
aF144.0
aF672.0
aF682.0
aF1026.0
aF559.0
aF185.0
aF94.0
aF790.0
aF838.0
aF215.0
aF1264.0
aF1102.0
aF1206.0
aF484.0
aF69.0
aF198.0
aF772.0
aF195.0
aF1040.0
aF913.0
aF578.0
aF1.0
aF41.0
aF433.0
aF173.0
aF1259.0
aF915.0
aF894.0
asF26.0
(lp27
F881.0
aF726.0
aF7.0
aF587.0
aF773.0
aF1382.0
aF1266.0
aF126.0
aF718.0
aF1180.0
aF616.0
aF829.0
aF507.0
aF847.0
aF1166.0
aF671.0
aF629.0
aF754.0
aF1179.0
aF207.0
aF545.0
aF1391.0
aF574.0
aF927.0
aF1013.0
aF1267.0
aF28.0
aF958.0
aF988.0
aF1171.0
aF580.0
aF454.0
aF402.0
aF590.0
aF53.0
aF896.0
aF1364.0
aF1096.0
aF879.0
aF998.0
aF1168.0
aF877.0
aF614.0
aF699.0
aF162.0
aF1296.0
aF783.0
aF488.0
aF693.0
aF1369.0
aF495.0
aF999.0
aF601.0
aF252.0
aF757.0
aF6.0
aF213.0
aF660.0
aF1407.0
aF1344.0
aF1355.0
aF835.0
aF1288.0
aF1238.0
aF415.0
aF427.0
aF634.0
aF385.0
aF352.0
aF282.0
aF1223.0
aF480.0
aF1019.0
aF672.0
aF523.0
aF936.0
aF163.0
aF794.0
aF1217.0
aF1146.0
aF335.0
aF1224.0
aF94.0
aF166.0
aF153.0
aF215.0
aF946.0
aF551.0
aF1206.0
aF71.0
aF198.0
aF1121.0
aF524.0
aF1298.0
aF1284.0
aF181.0
aF397.0
aF341.0
aF714.0
asF27.0
(lp28
F1286.0
aF881.0
aF587.0
aF705.0
aF1382.0
aF887.0
aF1095.0
aF476.0
aF718.0
aF1289.0
aF1180.0
aF388.0
aF1074.0
aF251.0
aF1064.0
aF1263.0
aF1185.0
aF269.0
aF1100.0
aF286.0
aF620.0
aF1008.0
aF1260.0
aF314.0
aF454.0
aF638.0
aF577.0
aF127.0
aF590.0
aF24.0
aF456.0
aF1080.0
aF184.0
aF53.0
aF947.0
aF610.0
aF1141.0
aF911.0
aF1364.0
aF1163.0
aF1021.0
aF52.0
aF1168.0
aF614.0
aF743.0
aF1143.0
aF475.0
aF1172.0
aF519.0
aF923.0
aF1392.0
aF613.0
aF964.0
aF245.0
aF59.0
aF92.0
aF711.0
aF1174.0
aF707.0
aF1091.0
aF724.0
aF1407.0
aF662.0
aF1344.0
aF1355.0
aF440.0
aF457.0
aF415.0
aF246.0
aF282.0
aF480.0
aF22.0
aF1258.0
aF794.0
aF844.0
aF1219.0
aF628.0
aF559.0
aF822.0
aF838.0
aF467.0
aF946.0
aF1104.0
aF1034.0
aF979.0
aF819.0
aF299.0
aF338.0
aF463.0
aF173.0
aF1279.0
aF1284.0
aF473.0
aF781.0
aF1102.0
aF1345.0
aF915.0
aF449.0
aF341.0
asF28.0
(lp29
F214.0
aF830.0
aF466.0
aF253.0
aF992.0
aF910.0
aF1066.0
aF509.0
aF889.0
aF1074.0
aF1262.0
aF698.0
aF834.0
aF320.0
aF754.0
aF3.0
aF839.0
aF545.0
aF400.0
aF987.0
aF680.0
aF742.0
aF266.0
aF622.0
aF1117.0
aF232.0
aF295.0
aF289.0
aF468.0
aF131.0
aF369.0
aF27.0
aF580.0
aF1181.0
aF577.0
aF189.0
aF1249.0
aF1348.0
aF347.0
aF224.0
aF626.0
aF1162.0
aF1205.0
aF584.0
aF404.0
aF610.0
aF1340.0
aF911.0
aF1112.0
aF687.0
aF368.0
aF1163.0
aF879.0
aF1140.0
aF1397.0
aF697.0
aF699.0
aF453.0
aF123.0
aF762.0
aF518.0
aF1322.0
aF424.0
aF981.0
aF90.0
aF191.0
aF479.0
aF1327.0
aF724.0
aF1051.0
aF415.0
aF1223.0
aF480.0
aF753.0
aF70.0
aF640.0
aF559.0
aF490.0
aF920.0
aF215.0
aF1135.0
aF946.0
aF390.0
aF261.0
aF777.0
aF130.0
aF632.0
aF180.0
aF717.0
aF915.0
aF869.0
asF29.0
(lp30
F1198.0
aF132.0
aF509.0
aF1180.0
aF1170.0
aF1320.0
aF829.0
aF1150.0
aF782.0
aF629.0
aF545.0
aF1391.0
aF278.0
aF30.0
aF604.0
aF994.0
aF958.0
aF362.0
aF25.0
aF508.0
aF1354.0
aF206.0
aF626.0
aF550.0
aF692.0
aF302.0
aF947.0
aF1096.0
aF687.0
aF1163.0
aF779.0
aF998.0
aF971.0
aF413.0
aF539.0
aF1349.0
aF877.0
aF1007.0
aF227.0
aF512.0
aF1399.0
aF409.0
aF92.0
aF252.0
aF757.0
aF316.0
aF464.0
aF1214.0
aF660.0
aF1355.0
aF494.0
aF634.0
aF356.0
aF405.0
aF480.0
aF824.0
aF144.0
aF753.0
aF57.0
aF1023.0
aF1090.0
aF682.0
aF318.0
aF560.0
aF822.0
aF946.0
aF78.0
aF675.0
aF1102.0
aF190.0
aF429.0
aF798.0
aF262.0
aF1034.0
aF419.0
aF524.0
aF1020.0
aF585.0
aF299.0
aF75.0
aF632.0
aF817.0
aF155.0
aF869.0
asF30.0
(lp31
F654.0
aF615.0
aF504.0
aF1180.0
aF563.0
aF416.0
aF111.0
aF348.0
aF546.0
aF143.0
aF33.0
aF521.0
aF370.0
aF127.0
aF875.0
aF857.0
aF969.0
aF544.0
aF158.0
aF586.0
aF1394.0
aF332.0
aF1015.0
aF183.0
aF452.0
aF780.0
aF1216.0
aF447.0
aF1248.0
aF540.0
aF276.0
aF816.0
aF993.0
aF1331.0
aF290.0
aF534.0
aF108.0
aF225.0
aF900.0
aF989.0
aF409.0
aF92.0
aF679.0
aF129.0
aF6.0
aF1325.0
aF835.0
aF324.0
aF352.0
aF282.0
aF595.0
aF1093.0
aF537.0
aF849.0
aF1001.0
aF1297.0
aF247.0
aF528.0
aF318.0
aF1233.0
aF1202.0
aF1081.0
aF215.0
aF1274.0
aF1030.0
aF248.0
aF1120.0
aF1299.0
aF395.0
aF1193.0
aF161.0
aF991.0
aF815.0
aF135.0
aF96.0
aF725.0
aF1037.0
aF41.0
aF837.0
aF841.0
aF864.0
aF202.0
aF894.0
asF31.0
(lp32
F821.0
aF200.0
aF44.0
aF910.0
aF388.0
aF1150.0
aF73.0
aF485.0
aF1074.0
aF1262.0
aF1184.0
aF1275.0
aF103.0
aF1391.0
aF1069.0
aF1132.0
aF266.0
aF874.0
aF295.0
aF28.0
aF949.0
aF1374.0
aF131.0
aF1373.0
aF1333.0
aF1181.0
aF62.0
aF659.0
aF983.0
aF224.0
aF532.0
aF404.0
aF610.0
aF1340.0
aF368.0
aF879.0
aF376.0
aF29.0
aF1044.0
aF762.0
aF210.0
aF1322.0
aF712.0
aF512.0
aF307.0
aF373.0
aF570.0
aF495.0
aF751.0
aF566.0
aF724.0
aF707.0
aF364.0
aF1288.0
aF494.0
aF1223.0
aF1234.0
aF523.0
aF1403.0
aF1390.0
aF163.0
aF794.0
aF897.0
aF920.0
aF215.0
aF1135.0
aF1396.0
aF1314.0
aF1206.0
aF261.0
aF979.0
aF69.0
aF198.0
aF772.0
aF1052.0
aF777.0
aF1121.0
aF520.0
aF473.0
aF34.0
aF915.0
aF97.0
asF32.0
(lp33
F509.0
aF933.0
aF1294.0
aF416.0
aF174.0
aF801.0
aF545.0
aF60.0
aF1280.0
aF589.0
aF483.0
aF131.0
aF1111.0
aF1225.0
aF1147.0
aF425.0
aF1256.0
aF903.0
aF842.0
aF1153.0
aF1015.0
aF690.0
aF1216.0
aF435.0
aF1148.0
aF1282.0
aF270.0
aF1392.0
aF1099.0
aF993.0
aF1328.0
aF534.0
aF90.0
aF46.0
aF932.0
aF751.0
aF464.0
aF1402.0
aF61.0
aF1344.0
aF835.0
aF1009.0
aF761.0
aF703.0
aF1152.0
aF538.0
aF1297.0
aF342.0
aF1217.0
aF682.0
aF1026.0
aF902.0
aF1300.0
aF469.0
aF811.0
aF1202.0
aF467.0
aF1274.0
aF1135.0
aF1103.0
aF429.0
aF138.0
aF1299.0
aF407.0
aF1053.0
aF819.0
aF1341.0
aF913.0
aF10.0
aF1230.0
aF524.0
aF567.0
aF31.0
aF841.0
aF1035.0
aF1204.0
aF179.0
aF691.0
aF1346.0
asF33.0
(lp34
F821.0
aF615.0
aF416.0
aF1074.0
aF109.0
aF11.0
aF1263.0
aF1391.0
aF987.0
aF366.0
aF1267.0
aF873.0
aF28.0
aF521.0
aF1045.0
aF727.0
aF1176.0
aF124.0
aF1059.0
aF257.0
aF1303.0
aF1112.0
aF1313.0
aF690.0
aF514.0
aF177.0
aF1039.0
aF1291.0
aF553.0
aF762.0
aF712.0
aF964.0
aF1237.0
aF488.0
aF194.0
aF499.0
aF1082.0
aF187.0
aF92.0
aF1056.0
aF724.0
aF246.0
aF1107.0
aF282.0
aF597.0
aF753.0
aF538.0
aF1258.0
aF849.0
aF1369.0
aF1157.0
aF844.0
aF382.0
aF14.0
aF785.0
aF1081.0
aF1302.0
aF1068.0
aF822.0
aF467.0
aF1135.0
aF551.0
aF675.0
aF1396.0
aF265.0
aF991.0
aF815.0
aF777.0
aF562.0
aF632.0
aF520.0
aF114.0
aF181.0
aF42.0
aF841.0
aF845.0
aF186.0
aF869.0
asF34.0
(lp35
F1351.0
aF273.0
aF808.0
aF476.0
aF1029.0
aF2.0
aF20.0
aF698.0
aF940.0
aF1186.0
aF1269.0
aF448.0
aF1311.0
aF483.0
aF748.0
aF1374.0
aF1045.0
aF362.0
aF1094.0
aF544.0
aF313.0
aF903.0
aF1153.0
aF1364.0
aF1096.0
aF438.0
aF1211.0
aF1216.0
aF447.0
aF710.0
aF1248.0
aF743.0
aF1291.0
aF993.0
aF1200.0
aF17.0
aF813.0
aF1400.0
aF225.0
aF365.0
aF888.0
aF87.0
aF191.0
aF464.0
aF178.0
aF566.0
aF724.0
aF1051.0
aF115.0
aF486.0
aF597.0
aF144.0
aF985.0
aF1297.0
aF1369.0
aF1157.0
aF1026.0
aF1376.0
aF902.0
aF1233.0
aF1300.0
aF1081.0
aF1367.0
aF1103.0
aF1299.0
aF848.0
aF287.0
aF1017.0
aF96.0
aF1037.0
aF832.0
aF562.0
aF181.0
aF1035.0
aF1278.0
aF894.0
aF451.0
aF869.0
asF35.0
(lp36
F253.0
aF705.0
aF1074.0
aF1011.0
aF1184.0
aF1072.0
aF1263.0
aF103.0
aF616.0
aF300.0
aF1119.0
aF3.0
aF286.0
aF541.0
aF987.0
aF620.0
aF1267.0
aF193.0
aF28.0
aF289.0
aF949.0
aF140.0
aF1181.0
aF62.0
aF659.0
aF5.0
aF1176.0
aF1080.0
aF1401.0
aF1175.0
aF853.0
aF376.0
aF858.0
aF475.0
aF723.0
aF762.0
aF965.0
aF795.0
aF646.0
aF488.0
aF373.0
aF252.0
aF1174.0
aF154.0
aF607.0
aF440.0
aF835.0
aF113.0
aF1288.0
aF246.0
aF1223.0
aF648.0
aF753.0
aF1403.0
aF794.0
aF437.0
aF897.0
aF297.0
aF611.0
aF920.0
aF13.0
aF1081.0
aF822.0
aF572.0
aF352.0
aF467.0
aF215.0
aF1104.0
aF78.0
aF675.0
aF772.0
aF41.0
aF181.0
aF915.0
aF449.0
asF36.0
(lp37
F788.0
aF152.0
aF476.0
aF1170.0
aF933.0
aF1320.0
aF330.0
aF1386.0
aF803.0
aF345.0
aF1295.0
aF131.0
aF1293.0
aF810.0
aF127.0
aF1176.0
aF1249.0
aF396.0
aF441.0
aF1143.0
aF294.0
aF1151.0
aF978.0
aF993.0
aF1331.0
aF290.0
aF488.0
aF499.0
aF846.0
aF1369.0
aF667.0
aF760.0
aF724.0
aF835.0
aF1383.0
aF898.0
aF605.0
aF753.0
aF1088.0
aF538.0
aF658.0
aF849.0
aF1090.0
aF1217.0
aF582.0
aF1146.0
aF14.0
aF826.0
aF838.0
aF946.0
aF229.0
aF1396.0
aF1206.0
aF138.0
aF262.0
aF242.0
aF639.0
aF1341.0
aF96.0
aF777.0
aF1037.0
aF524.0
aF1290.0
aF338.0
aF173.0
aF632.0
aF367.0
aF181.0
aF31.0
aF841.0
aF845.0
aF478.0
aF462.0
aF1278.0
aF915.0
asF37.0
(lp38
F1408.0
aF718.0
aF1134.0
aF509.0
aF1047.0
aF606.0
aF575.0
aF366.0
aF598.0
aF1293.0
aF274.0
aF50.0
aF131.0
aF1201.0
aF700.0
aF95.0
aF727.0
aF436.0
aF360.0
aF158.0
aF947.0
aF1364.0
aF298.0
aF1313.0
aF514.0
aF128.0
aF1349.0
aF1148.0
aF1282.0
aF263.0
aF1392.0
aF1213.0
aF712.0
aF38.0
aF225.0
aF488.0
aF900.0
aF420.0
aF194.0
aF888.0
aF1385.0
aF191.0
aF1214.0
aF1327.0
aF1056.0
aF760.0
aF835.0
aF113.0
aF282.0
aF703.0
aF1234.0
aF1088.0
aF870.0
aF1369.0
aF844.0
aF1026.0
aF104.0
aF902.0
aF14.0
aF792.0
aF399.0
aF1081.0
aF822.0
aF215.0
aF235.0
aF287.0
aF619.0
aF578.0
aF463.0
aF31.0
aF866.0
aF841.0
aF845.0
aF894.0
asF38.0
(lp39
F466.0
aF1241.0
aF1198.0
aF992.0
aF1134.0
aF1047.0
aF1184.0
aF834.0
aF734.0
aF60.0
aF742.0
aF622.0
aF99.0
aF28.0
aF118.0
aF657.0
aF561.0
aF1006.0
aF216.0
aF62.0
aF1249.0
aF1002.0
aF642.0
aF302.0
aF72.0
aF695.0
aF514.0
aF123.0
aF519.0
aF618.0
aF1322.0
aF712.0
aF993.0
aF570.0
aF495.0
aF191.0
aF601.0
aF757.0
aF526.0
aF637.0
aF724.0
aF1407.0
aF1136.0
aF361.0
aF113.0
aF205.0
aF1288.0
aF406.0
aF761.0
aF1107.0
aF1398.0
aF537.0
aF1403.0
aF318.0
aF1189.0
aF363.0
aF260.0
aF715.0
aF1081.0
aF467.0
aF551.0
aF287.0
aF1329.0
aF737.0
aF777.0
aF1121.0
aF1230.0
aF1255.0
aF1257.0
aF473.0
aF1022.0
aF915.0
aF1123.0
aF714.0
asF39.0
(lp40
F1324.0
aF416.0
aF20.0
aF330.0
aF122.0
aF791.0
aF545.0
aF389.0
aF1073.0
aF530.0
aF1374.0
aF988.0
aF362.0
aF19.0
aF127.0
aF1249.0
aF544.0
aF1335.0
aF515.0
aF1394.0
aF1256.0
aF18.0
aF1303.0
aF669.0
aF359.0
aF1143.0
aF618.0
aF276.0
aF993.0
aF919.0
aF1328.0
aF365.0
aF194.0
aF499.0
aF1369.0
aF751.0
aF757.0
aF464.0
aF37.0
aF6.0
aF1327.0
aF1091.0
aF486.0
aF119.0
aF1152.0
aF658.0
aF870.0
aF382.0
aF682.0
aF582.0
aF1224.0
aF399.0
aF1302.0
aF467.0
aF1274.0
aF280.0
aF268.0
aF1299.0
aF198.0
aF125.0
aF242.0
aF619.0
aF772.0
aF1155.0
aF991.0
aF524.0
aF520.0
aF841.0
aF759.0
aF869.0
asF40.0
(lp41
F343.0
aF1047.0
aF938.0
aF109.0
aF847.0
aF545.0
aF141.0
aF720.0
aF644.0
aF1374.0
aF1111.0
aF974.0
aF657.0
aF583.0
aF1002.0
aF642.0
aF584.0
aF947.0
aF1021.0
aF778.0
aF697.0
aF539.0
aF283.0
aF614.0
aF513.0
aF984.0
aF276.0
aF488.0
aF1118.0
aF667.0
aF760.0
aF724.0
aF427.0
aF634.0
aF597.0
aF523.0
aF325.0
aF640.0
aF849.0
aF1369.0
aF1157.0
aF382.0
aF682.0
aF318.0
aF1233.0
aF811.0
aF399.0
aF1302.0
aF308.0
aF467.0
aF1030.0
aF287.0
aF69.0
aF767.0
aF772.0
aF991.0
aF463.0
aF1116.0
aF632.0
aF520.0
aF181.0
aF1035.0
aF34.0
aF1227.0
aF915.0
aF617.0
aF449.0
aF1346.0
aF894.0
asF41.0
(lp42
F1134.0
aF303.0
aF1323.0
aF251.0
aF545.0
aF85.0
aF987.0
aF65.0
aF106.0
aF366.0
aF1374.0
aF676.0
aF274.0
aF1333.0
aF127.0
aF1045.0
aF86.0
aF727.0
aF548.0
aF224.0
aF626.0
aF8.0
aF1015.0
aF904.0
aF410.0
aF1148.0
aF1044.0
aF359.0
aF635.0
aF475.0
aF861.0
aF1237.0
aF945.0
aF420.0
aF187.0
aF364.0
aF205.0
aF427.0
aF1223.0
aF1234.0
aF1403.0
aF538.0
aF57.0
aF1369.0
aF14.0
aF963.0
aF920.0
aF1384.0
aF279.0
aF1274.0
aF79.0
aF1312.0
aF977.0
aF265.0
aF772.0
aF1341.0
aF562.0
aF1226.0
aF1257.0
aF42.0
aF186.0
aF1278.0
aF107.0
aF234.0
aF915.0
aF202.0
aF894.0
aF97.0
asF42.0
(lp43
F443.0
aF1055.0
aF275.0
aF303.0
aF1323.0
aF305.0
aF1391.0
aF85.0
aF1013.0
aF545.0
aF1374.0
aF1293.0
aF1045.0
aF86.0
aF127.0
aF74.0
aF124.0
aF1086.0
aF1340.0
aF1175.0
aF806.0
aF669.0
aF1163.0
aF904.0
aF410.0
aF51.0
aF1148.0
aF861.0
aF712.0
aF547.0
aF1339.0
aF495.0
aF601.0
aF667.0
aF154.0
aF1327.0
aF683.0
aF1355.0
aF361.0
aF364.0
aF246.0
aF1223.0
aF119.0
aF1234.0
aF1127.0
aF325.0
aF538.0
aF968.0
aF57.0
aF1145.0
aF528.0
aF1219.0
aF14.0
aF559.0
aF1302.0
aF467.0
aF1396.0
aF91.0
aF918.0
aF772.0
aF777.0
aF758.0
aF473.0
aF841.0
aF34.0
aF107.0
aF915.0
asF43.0
(lp44
F788.0
aF416.0
aF141.0
aF713.0
aF1065.0
aF589.0
aF28.0
aF1293.0
aF314.0
aF1094.0
aF216.0
aF206.0
aF403.0
aF313.0
aF1401.0
aF1015.0
aF904.0
aF998.0
aF452.0
aF1148.0
aF283.0
aF1291.0
aF828.0
aF762.0
aF618.0
aF1195.0
aF276.0
aF993.0
aF930.0
aF1128.0
aF187.0
aF601.0
aF84.0
aF678.0
aF61.0
aF361.0
aF1288.0
aF753.0
aF672.0
aF325.0
aF538.0
aF1054.0
aF682.0
aF902.0
aF490.0
aF260.0
aF674.0
aF399.0
aF331.0
aF467.0
aF1274.0
aF248.0
aF848.0
aF428.0
aF69.0
aF198.0
aF991.0
aF815.0
aF41.0
aF338.0
aF841.0
aF196.0
aF845.0
aF34.0
aF179.0
aF894.0
aF97.0
asF44.0
(lp45
F220.0
aF718.0
aF825.0
aF836.0
aF834.0
aF1391.0
aF208.0
aF348.0
aF30.0
aF622.0
aF747.0
aF1267.0
aF99.0
aF545.0
aF1374.0
aF1293.0
aF843.0
aF1002.0
aF72.0
aF1364.0
aF890.0
aF1211.0
aF51.0
aF993.0
aF1400.0
aF1317.0
aF495.0
aF751.0
aF1327.0
aF760.0
aF1407.0
aF1344.0
aF246.0
aF486.0
aF1107.0
aF597.0
aF119.0
aF325.0
aF57.0
aF794.0
aF437.0
aF897.0
aF682.0
aF147.0
aF14.0
aF399.0
aF572.0
aF467.0
aF215.0
aF1396.0
aF1103.0
aF1314.0
aF1329.0
aF198.0
aF265.0
aF991.0
aF1246.0
aF602.0
aF1.0
aF562.0
aF473.0
aF845.0
aF107.0
aF894.0
asF45.0
(lp46
F458.0
aF901.0
aF599.0
aF793.0
aF739.0
aF416.0
aF709.0
aF975.0
aF266.0
aF1207.0
aF974.0
aF833.0
aF1249.0
aF1147.0
aF1002.0
aF842.0
aF1153.0
aF257.0
aF1203.0
aF971.0
aF112.0
aF780.0
aF877.0
aF571.0
aF535.0
aF1195.0
aF1099.0
aF512.0
aF170.0
aF1400.0
aF1082.0
aF1339.0
aF191.0
aF92.0
aF1194.0
aF1056.0
aF259.0
aF244.0
aF405.0
aF282.0
aF1077.0
aF957.0
aF1157.0
aF1219.0
aF559.0
aF1300.0
aF1224.0
aF399.0
aF715.0
aF1302.0
aF822.0
aF1264.0
aF1367.0
aF1387.0
aF1030.0
aF1299.0
aF848.0
aF96.0
aF602.0
aF1395.0
aF41.0
aF632.0
aF186.0
aF155.0
asF46.0
(lp47
F32.0
aF20.0
aF461.0
aF629.0
aF1060.0
aF1304.0
aF803.0
aF28.0
aF1374.0
aF1293.0
aF810.0
aF127.0
aF216.0
aF1249.0
aF206.0
aF1394.0
aF947.0
aF1340.0
aF1163.0
aF812.0
aF1397.0
aF778.0
aF177.0
aF1148.0
aF571.0
aF1248.0
aF861.0
aF547.0
aF1281.0
aF579.0
aF1369.0
aF464.0
aF667.0
aF1056.0
aF760.0
aF724.0
aF1407.0
aF1355.0
aF1359.0
aF703.0
aF597.0
aF119.0
aF325.0
aF57.0
aF818.0
aF609.0
aF382.0
aF147.0
aF318.0
aF902.0
aF1300.0
aF811.0
aF467.0
aF215.0
aF229.0
aF261.0
aF198.0
aF619.0
aF632.0
aF841.0
aF196.0
aF845.0
aF1278.0
aF915.0
asF47.0
(lp48
F253.0
aF1324.0
aF497.0
aF773.0
aF886.0
aF1198.0
aF105.0
aF73.0
aF1074.0
aF938.0
aF1011.0
aF801.0
aF305.0
aF1060.0
aF3.0
aF345.0
aF622.0
aF738.0
aF28.0
aF568.0
aF1176.0
aF224.0
aF626.0
aF642.0
aF1205.0
aF947.0
aF1254.0
aF1303.0
aF998.0
aF376.0
aF787.0
aF1392.0
aF712.0
aF978.0
aF547.0
aF981.0
aF930.0
aF1128.0
aF350.0
aF1082.0
aF495.0
aF1058.0
aF1288.0
aF1403.0
aF57.0
aF1023.0
aF611.0
aF490.0
aF920.0
aF822.0
aF655.0
aF1367.0
aF1396.0
aF120.0
aF777.0
aF578.0
aF433.0
aF338.0
aF632.0
aF31.0
aF196.0
aF186.0
aF97.0
asF48.0
(lp49
F44.0
aF67.0
aF328.0
aF1337.0
aF801.0
aF159.0
aF1391.0
aF60.0
aF521.0
aF211.0
aF842.0
aF1211.0
aF441.0
aF1361.0
aF452.0
aF1148.0
aF743.0
aF219.0
aF553.0
aF535.0
aF1343.0
aF594.0
aF993.0
aF1331.0
aF1082.0
aF1339.0
aF191.0
aF757.0
aF228.0
aF667.0
aF1407.0
aF361.0
aF935.0
aF1243.0
aF595.0
aF1088.0
aF325.0
aF849.0
aF1001.0
aF1297.0
aF1369.0
aF554.0
aF382.0
aF1300.0
aF785.0
aF1068.0
aF790.0
aF467.0
aF1053.0
aF428.0
aF1329.0
aF198.0
aF619.0
aF1290.0
aF1257.0
aF632.0
aF367.0
aF845.0
aF462.0
aF759.0
aF746.0
asF49.0
(lp50
F32.0
aF881.0
aF516.0
aF705.0
aF1382.0
aF504.0
aF2.0
aF275.0
aF1074.0
aF310.0
aF1391.0
aF400.0
aF389.0
aF987.0
aF713.0
aF1267.0
aF255.0
aF266.0
aF1181.0
aF577.0
aF254.0
aF184.0
aF1256.0
aF1401.0
aF1084.0
aF257.0
aF403.0
aF911.0
aF209.0
aF128.0
aF762.0
aF964.0
aF245.0
aF646.0
aF1237.0
aF1016.0
aF59.0
aF191.0
aF744.0
aF601.0
aF213.0
aF1355.0
aF113.0
aF1058.0
aF494.0
aF377.0
aF1127.0
aF1219.0
aF611.0
aF715.0
aF572.0
aF352.0
aF69.0
aF772.0
aF777.0
aF758.0
aF1121.0
aF632.0
aF180.0
aF915.0
aF1346.0
asF50.0
(lp51
F825.0
aF208.0
aF1311.0
aF30.0
aF106.0
aF747.0
aF1267.0
aF1374.0
aF1293.0
aF1364.0
aF890.0
aF1211.0
aF51.0
aF447.0
aF412.0
aF283.0
aF263.0
aF993.0
aF1331.0
aF225.0
aF900.0
aF1317.0
aF92.0
aF751.0
aF760.0
aF178.0
aF835.0
aF113.0
aF1288.0
aF1243.0
aF486.0
aF597.0
aF144.0
aF769.0
aF325.0
aF986.0
aF1157.0
aF682.0
aF1026.0
aF528.0
aF674.0
aF895.0
aF399.0
aF1081.0
aF696.0
aF1274.0
aF946.0
aF1103.0
aF798.0
aF407.0
aF1329.0
aF737.0
aF265.0
aF1341.0
aF96.0
aF777.0
aF632.0
aF841.0
aF845.0
aF449.0
aF894.0
asF51.0
(lp52
F328.0
aF416.0
aF545.0
aF1371.0
aF546.0
aF28.0
aF143.0
aF561.0
aF292.0
aF127.0
aF1004.0
aF74.0
aF158.0
aF642.0
aF903.0
aF690.0
aF778.0
aF780.0
aF1216.0
aF1248.0
aF188.0
aF535.0
aF762.0
aF1392.0
aF1099.0
aF432.0
aF993.0
aF579.0
aF194.0
aF499.0
aF944.0
aF464.0
aF1136.0
aF835.0
aF406.0
aF325.0
aF538.0
aF986.0
aF342.0
aF844.0
aF382.0
aF1300.0
aF560.0
aF792.0
aF1081.0
aF467.0
aF1274.0
aF229.0
aF280.0
aF287.0
aF1329.0
aF198.0
aF161.0
aF1341.0
aF991.0
aF41.0
aF1257.0
aF75.0
aF181.0
aF202.0
asF52.0
(lp53
F1283.0
aF664.0
aF536.0
aF552.0
aF739.0
aF1294.0
aF1320.0
aF829.0
aF943.0
aF1138.0
aF1381.0
aF508.0
aF784.0
aF456.0
aF156.0
aF515.0
aF302.0
aF1394.0
aF1256.0
aF1175.0
aF623.0
aF1163.0
aF209.0
aF1318.0
aF571.0
aF513.0
aF263.0
aF505.0
aF950.0
aF92.0
aF1188.0
aF566.0
aF361.0
aF1359.0
aF415.0
aF486.0
aF1107.0
aF1223.0
aF597.0
aF1217.0
aF1026.0
aF1300.0
aF790.0
aF551.0
aF1367.0
aF1242.0
aF1193.0
aF125.0
aF264.0
aF1246.0
aF96.0
aF478.0
aF462.0
aF397.0
aF107.0
aF864.0
aF869.0
asF53.0
(lp54
F497.0
aF718.0
aF509.0
aF739.0
aF1180.0
aF938.0
aF709.0
aF954.0
aF583.0
aF404.0
aF257.0
aF1021.0
aF877.0
aF723.0
aF204.0
aF535.0
aF816.0
aF978.0
aF512.0
aF1128.0
aF350.0
aF92.0
aF252.0
aF1214.0
aF976.0
aF1187.0
aF178.0
aF760.0
aF1344.0
aF1355.0
aF440.0
aF494.0
aF427.0
aF244.0
aF22.0
aF824.0
aF1019.0
aF523.0
aF1217.0
aF844.0
aF682.0
aF318.0
aF1224.0
aF399.0
aF551.0
aF1102.0
aF1206.0
aF848.0
aF484.0
aF299.0
aF632.0
aF181.0
aF397.0
aF915.0
aF449.0
aF1346.0
asF54.0
(lp55
F684.0
aF821.0
aF443.0
aF776.0
aF992.0
aF820.0
aF137.0
aF383.0
aF1276.0
aF862.0
aF782.0
aF731.0
aF952.0
aF1269.0
aF85.0
aF876.0
aF1013.0
aF802.0
aF994.0
aF483.0
aF28.0
aF949.0
aF603.0
aF127.0
aF189.0
aF224.0
aF1162.0
aF53.0
aF1256.0
aF911.0
aF762.0
aF98.0
aF1087.0
aF827.0
aF1018.0
aF1407.0
aF683.0
aF364.0
aF1342.0
aF246.0
aF672.0
aF1127.0
aF1403.0
aF57.0
aF818.0
aF1285.0
aF222.0
aF197.0
aF229.0
aF1380.0
aF1121.0
aF75.0
aF1284.0
aF1109.0
aF691.0
aF627.0
asF55.0
(lp56
F739.0
aF1047.0
aF573.0
aF940.0
aF941.0
aF1065.0
aF1175.0
aF426.0
aF1096.0
aF514.0
aF778.0
aF780.0
aF533.0
aF188.0
aF828.0
aF535.0
aF645.0
aF1296.0
aF170.0
aF488.0
aF365.0
aF728.0
aF900.0
aF194.0
aF191.0
aF201.0
aF1000.0
aF113.0
aF1357.0
aF1107.0
aF1054.0
aF870.0
aF1157.0
aF382.0
aF247.0
aF1376.0
aF1196.0
aF241.0
aF1081.0
aF790.0
aF467.0
aF946.0
aF1387.0
aF1103.0
aF1030.0
aF287.0
aF491.0
aF972.0
aF585.0
aF632.0
aF196.0
aF186.0
aF1259.0
asF56.0
(lp57
F1180.0
aF1315.0
aF709.0
aF589.0
aF226.0
aF1374.0
aF564.0
aF131.0
aF33.0
aF216.0
aF402.0
aF127.0
aF543.0
aF642.0
aF1394.0
aF998.0
aF778.0
aF1349.0
aF571.0
aF547.0
aF1281.0
aF442.0
aF751.0
aF667.0
aF61.0
aF760.0
aF1407.0
aF361.0
aF1000.0
aF282.0
aF597.0
aF119.0
aF537.0
aF1152.0
aF538.0
aF1026.0
aF318.0
aF399.0
aF308.0
aF78.0
aF229.0
aF248.0
aF912.0
aF161.0
aF819.0
aF959.0
aF1154.0
aF1230.0
aF196.0
aF845.0
aF186.0
aF34.0
aF107.0
asF57.0
(lp58
F1180.0
aF416.0
aF709.0
aF1386.0
aF734.0
aF803.0
aF747.0
aF362.0
aF1094.0
aF1002.0
aF230.0
aF903.0
aF1175.0
aF904.0
aF29.0
aF1397.0
aF697.0
aF175.0
aF1291.0
aF787.0
aF828.0
aF1392.0
aF993.0
aF613.0
aF813.0
aF150.0
aF856.0
aF888.0
aF1369.0
aF464.0
aF760.0
aF415.0
aF634.0
aF282.0
aF1152.0
aF1390.0
aF342.0
aF14.0
aF399.0
aF1274.0
aF1264.0
aF1103.0
aF192.0
aF319.0
aF979.0
aF1028.0
aF484.0
aF991.0
aF578.0
aF632.0
aF817.0
aF1227.0
aF449.0
asF58.0
(lp59
F1198.0
aF267.0
aF305.0
aF591.0
aF742.0
aF28.0
aF598.0
aF1062.0
aF1366.0
aF1335.0
aF947.0
aF1071.0
aF1363.0
aF349.0
aF1007.0
aF614.0
aF743.0
aF635.0
aF547.0
aF964.0
aF434.0
aF757.0
aF464.0
aF637.0
aF706.0
aF835.0
aF634.0
aF1220.0
aF282.0
aF523.0
aF897.0
aF1369.0
aF844.0
aF104.0
aF528.0
aF559.0
aF560.0
aF715.0
aF822.0
aF1356.0
aF91.0
aF161.0
aF195.0
aF357.0
aF585.0
aF338.0
aF114.0
aF181.0
aF1035.0
aF234.0
aF915.0
aF869.0
asF59.0
(lp60
F466.0
aF820.0
aF718.0
aF416.0
aF1138.0
aF1263.0
aF834.0
aF1267.0
aF99.0
aF28.0
aF810.0
aF521.0
aF33.0
aF843.0
aF624.0
aF1075.0
aF254.0
aF1163.0
aF535.0
aF518.0
aF432.0
aF993.0
aF477.0
aF1327.0
aF724.0
aF1407.0
aF1344.0
aF246.0
aF244.0
aF405.0
aF119.0
aF537.0
aF256.0
aF672.0
aF325.0
aF582.0
aF528.0
aF14.0
aF399.0
aF715.0
aF1057.0
aF467.0
aF675.0
aF293.0
aF1206.0
aF777.0
aF524.0
aF632.0
aF520.0
aF1284.0
aF473.0
aF31.0
asF60.0
(lp61
F1283.0
aF718.0
aF416.0
aF330.0
aF394.0
aF149.0
aF461.0
aF754.0
aF1386.0
aF575.0
aF28.0
aF1111.0
aF131.0
aF700.0
aF127.0
aF425.0
aF692.0
aF53.0
aF1044.0
aF475.0
aF945.0
aF1331.0
aF245.0
aF488.0
aF1385.0
aF1018.0
aF1327.0
aF1056.0
aF361.0
aF427.0
aF597.0
aF119.0
aF537.0
aF814.0
aF794.0
aF342.0
aF382.0
aF997.0
aF946.0
aF1367.0
aF1206.0
aF91.0
aF198.0
aF161.0
aF619.0
aF832.0
aF180.0
aF1035.0
aF186.0
aF1235.0
aF894.0
asF61.0
(lp62
F1263.0
aF1391.0
aF400.0
aF28.0
aF289.0
aF1374.0
aF131.0
aF206.0
aF610.0
aF1175.0
aF438.0
aF418.0
aF177.0
aF618.0
aF712.0
aF547.0
aF488.0
aF191.0
aF92.0
aF751.0
aF1327.0
aF760.0
aF724.0
aF835.0
aF113.0
aF494.0
aF415.0
aF246.0
aF1357.0
aF282.0
aF597.0
aF1019.0
aF523.0
aF1369.0
aF844.0
aF382.0
aF318.0
aF399.0
aF1081.0
aF352.0
aF215.0
aF1135.0
aF551.0
aF1206.0
aF91.0
aF772.0
aF815.0
aF338.0
aF632.0
aF520.0
aF186.0
asF62.0
(lp63
F509.0
aF1047.0
aF416.0
aF109.0
aF941.0
aF545.0
aF411.0
aF127.0
aF612.0
aF441.0
aF812.0
aF452.0
aF514.0
aF1216.0
aF697.0
aF723.0
aF123.0
aF1151.0
aF966.0
aF712.0
aF813.0
aF728.0
aF194.0
aF1082.0
aF1369.0
aF760.0
aF835.0
aF750.0
aF1125.0
aF405.0
aF1398.0
aF538.0
aF1297.0
aF682.0
aF318.0
aF811.0
aF1081.0
aF1302.0
aF1206.0
aF161.0
aF991.0
aF1246.0
aF1257.0
aF632.0
aF181.0
aF841.0
aF845.0
aF462.0
aF915.0
asF63.0
(lp64
F1208.0
aF203.0
aF516.0
aF1222.0
aF1066.0
aF709.0
aF355.0
aF1232.0
aF411.0
aF546.0
aF1031.0
aF142.0
aF370.0
aF860.0
aF1181.0
aF158.0
aF313.0
aF1397.0
aF1349.0
aF35.0
aF618.0
aF1392.0
aF1399.0
aF813.0
aF719.0
aF92.0
aF1191.0
aF233.0
aF102.0
aF246.0
aF1379.0
aF134.0
aF1376.0
aF94.0
aF811.0
aF334.0
aF1135.0
aF248.0
aF798.0
aF91.0
aF1272.0
aF913.0
aF982.0
aF520.0
aF567.0
aF31.0
aF1035.0
aF1204.0
aF869.0
asF64.0
(lp65
F881.0
aF1382.0
aF910.0
aF1360.0
aF782.0
aF987.0
aF136.0
aF545.0
aF1374.0
aF988.0
aF1094.0
aF954.0
aF404.0
aF947.0
aF896.0
aF1163.0
aF204.0
aF861.0
aF1237.0
aF762.0
aF547.0
aF434.0
aF646.0
aF768.0
aF90.0
aF1187.0
aF1407.0
aF1344.0
aF1355.0
aF361.0
aF364.0
aF1288.0
aF494.0
aF634.0
aF909.0
aF22.0
aF1019.0
aF1234.0
aF1217.0
aF844.0
aF528.0
aF215.0
aF1121.0
aF41.0
aF1298.0
aF397.0
aF915.0
aF97.0
asF65.0
(lp66
F788.0
aF44.0
aF152.0
aF718.0
aF67.0
aF1337.0
aF330.0
aF940.0
aF882.0
aF1295.0
aF106.0
aF810.0
aF1201.0
aF843.0
aF1249.0
aF1268.0
aF904.0
aF441.0
aF117.0
aF677.0
aF123.0
aF294.0
aF535.0
aF762.0
aF110.0
aF594.0
aF1296.0
aF1082.0
aF932.0
aF6.0
aF1407.0
aF1244.0
aF937.0
aF672.0
aF658.0
aF582.0
aF997.0
aF185.0
aF838.0
aF287.0
aF991.0
aF1273.0
aF23.0
aF1230.0
aF837.0
aF367.0
aF759.0
aF1259.0
asF66.0
(lp67
F203.0
aF709.0
aF1374.0
aF1045.0
aF216.0
aF1176.0
aF302.0
aF1321.0
aF514.0
aF778.0
aF188.0
aF828.0
aF276.0
aF1281.0
aF579.0
aF900.0
aF804.0
aF757.0
aF213.0
aF1344.0
aF361.0
aF427.0
aF1234.0
aF769.0
aF538.0
aF1390.0
aF342.0
aF1217.0
aF382.0
aF147.0
aF1026.0
aF1376.0
aF1300.0
aF467.0
aF1396.0
aF529.0
aF268.0
aF161.0
aF772.0
aF264.0
aF602.0
aF562.0
aF1257.0
aF107.0
aF234.0
aF202.0
aF1346.0
aF451.0
asF67.0
(lp68
F1215.0
aF9.0
aF1315.0
aF36.0
aF141.0
aF60.0
aF366.0
aF1293.0
aF521.0
aF158.0
aF313.0
aF1394.0
aF101.0
aF939.0
aF452.0
aF1167.0
aF123.0
aF294.0
aF218.0
aF984.0
aF432.0
aF1369.0
aF724.0
aF1344.0
aF1355.0
aF835.0
aF282.0
aF1152.0
aF902.0
aF1300.0
aF260.0
aF811.0
aF715.0
aF467.0
aF946.0
aF1387.0
aF248.0
aF429.0
aF619.0
aF772.0
aF1341.0
aF777.0
aF524.0
aF41.0
aF841.0
aF741.0
aF894.0
asF68.0
(lp69
F1307.0
aF709.0
aF573.0
aF1060.0
aF1232.0
aF417.0
aF1374.0
aF1075.0
aF351.0
aF955.0
aF903.0
aF779.0
aF1216.0
aF1248.0
aF1039.0
aF188.0
aF661.0
aF1410.0
aF501.0
aF432.0
aF993.0
aF213.0
aF760.0
aF942.0
aF1344.0
aF835.0
aF1000.0
aF115.0
aF1067.0
aF134.0
aF936.0
aF1054.0
aF1250.0
aF1157.0
aF1306.0
aF1026.0
aF528.0
aF1274.0
aF878.0
aF428.0
aF491.0
aF972.0
aF96.0
aF578.0
aF524.0
aF31.0
aF1204.0
asF69.0
(lp70
F808.0
aF739.0
aF416.0
aF1320.0
aF1391.0
aF541.0
aF348.0
aF216.0
aF692.0
aF313.0
aF1394.0
aF18.0
aF778.0
aF677.0
aF571.0
aF614.0
aF743.0
aF723.0
aF993.0
aF464.0
aF724.0
aF503.0
aF1000.0
aF405.0
aF597.0
aF537.0
aF1152.0
aF1088.0
aF437.0
aF1217.0
aF241.0
aF1300.0
aF166.0
aF811.0
aF790.0
aF551.0
aF248.0
aF390.0
aF491.0
aF198.0
aF161.0
aF1298.0
aF367.0
aF481.0
aF341.0
aF894.0
asF70.0
(lp71
F458.0
aF203.0
aF1307.0
aF599.0
aF328.0
aF967.0
aF606.0
aF207.0
aF30.0
aF366.0
aF673.0
aF1394.0
aF1268.0
aF412.0
aF1148.0
aF263.0
aF553.0
aF1296.0
aF38.0
aF867.0
aF84.0
aF228.0
aF464.0
aF37.0
aF6.0
aF1056.0
aF361.0
aF872.0
aF595.0
aF1152.0
aF658.0
aF1070.0
aF382.0
aF185.0
aF792.0
aF1274.0
aF675.0
aF991.0
aF725.0
aF354.0
aF1290.0
aF433.0
aF837.0
aF520.0
aF1035.0
aF1108.0
asF71.0
(lp72
F788.0
aF7.0
aF829.0
aF1012.0
aF1060.0
aF1381.0
aF30.0
aF752.0
aF988.0
aF18.0
aF842.0
aF1175.0
aF697.0
aF571.0
aF188.0
aF828.0
aF1200.0
aF613.0
aF579.0
aF201.0
aF84.0
aF464.0
aF667.0
aF566.0
aF1091.0
aF503.0
aF134.0
aF1152.0
aF538.0
aF1054.0
aF559.0
aF1300.0
aF792.0
aF467.0
aF1274.0
aF78.0
aF675.0
aF1387.0
aF1120.0
aF287.0
aF1154.0
aF832.0
aF837.0
aF520.0
aF567.0
aF234.0
asF72.0
(lp73
F1382.0
aF509.0
aF416.0
aF109.0
aF545.0
aF852.0
aF345.0
aF546.0
aF266.0
aF622.0
aF810.0
aF1002.0
aF642.0
aF298.0
aF812.0
aF514.0
aF861.0
aF276.0
aF712.0
aF965.0
aF856.0
aF191.0
aF92.0
aF751.0
aF724.0
aF835.0
aF415.0
aF1357.0
aF282.0
aF325.0
aF1054.0
aF382.0
aF902.0
aF490.0
aF811.0
aF399.0
aF467.0
aF1274.0
aF138.0
aF287.0
aF69.0
aF991.0
aF815.0
aF520.0
aF1227.0
aF915.0
asF73.0
(lp74
F1286.0
aF330.0
aF1060.0
aF839.0
aF389.0
aF1371.0
aF527.0
aF18.0
aF1153.0
aF514.0
aF1044.0
aF1248.0
aF966.0
aF993.0
aF245.0
aF365.0
aF1339.0
aF751.0
aF464.0
aF1058.0
aF486.0
aF1093.0
aF1001.0
aF469.0
aF1302.0
aF1068.0
aF352.0
aF675.0
aF1314.0
aF280.0
aF268.0
aF883.0
aF91.0
aF491.0
aF619.0
aF96.0
aF1092.0
aF982.0
aF41.0
aF75.0
aF520.0
aF196.0
aF1035.0
aF155.0
aF627.0
aF107.0
asF74.0
(lp75
F1133.0
aF552.0
aF476.0
aF416.0
aF20.0
aF1374.0
aF527.0
aF1111.0
aF1006.0
aF1411.0
aF127.0
aF843.0
aF727.0
aF863.0
aF690.0
aF1397.0
aF1148.0
aF1130.0
aF1392.0
aF1213.0
aF807.0
aF194.0
aF1378.0
aF932.0
aF667.0
aF154.0
aF1325.0
aF1088.0
aF325.0
aF794.0
aF870.0
aF1081.0
aF675.0
aF287.0
aF1034.0
aF1155.0
aF1036.0
aF1279.0
aF181.0
aF841.0
aF845.0
aF741.0
aF717.0
aF1122.0
asF75.0
(lp76
F859.0
aF1324.0
aF7.0
aF829.0
aF1263.0
aF738.0
aF266.0
aF1373.0
aF131.0
aF843.0
aF922.0
aF1354.0
aF610.0
aF257.0
aF426.0
aF687.0
aF514.0
aF1096.0
aF177.0
aF699.0
aF488.0
aF45.0
aF191.0
aF1174.0
aF760.0
aF724.0
aF662.0
aF440.0
aF480.0
aF844.0
aF318.0
aF1196.0
aF1081.0
aF790.0
aF1367.0
aF198.0
aF1246.0
aF299.0
aF632.0
aF759.0
aF717.0
aF617.0
aF1346.0
asF76.0
(lp77
F214.0
aF167.0
aF328.0
aF2.0
aF1353.0
aF193.0
aF143.0
aF1075.0
aF8.0
aF1175.0
aF690.0
aF418.0
aF780.0
aF710.0
aF219.0
aF188.0
aF888.0
aF499.0
aF932.0
aF751.0
aF213.0
aF942.0
aF356.0
aF1001.0
aF1369.0
aF382.0
aF997.0
aF94.0
aF1387.0
aF878.0
aF619.0
aF815.0
aF777.0
aF1290.0
aF1257.0
aF517.0
aF520.0
aF31.0
aF1035.0
aF481.0
aF1204.0
aF894.0
aF746.0
asF77.0
(lp78
F763.0
aF446.0
aF788.0
aF1134.0
aF542.0
aF671.0
aF85.0
aF136.0
aF546.0
aF1117.0
aF1374.0
aF131.0
aF1333.0
aF548.0
aF626.0
aF947.0
aF1363.0
aF571.0
aF787.0
aF861.0
aF1281.0
aF900.0
aF1214.0
aF1327.0
aF1355.0
aF427.0
aF356.0
aF1107.0
aF119.0
aF769.0
aF318.0
aF1300.0
aF920.0
aF1135.0
aF1396.0
aF248.0
aF138.0
aF433.0
aF632.0
aF42.0
aF841.0
aF1035.0
aF107.0
asF78.0
(lp79
F830.0
aF167.0
aF808.0
aF328.0
aF940.0
aF573.0
aF1391.0
aF742.0
aF1293.0
aF988.0
aF274.0
aF25.0
aF95.0
aF402.0
aF313.0
aF302.0
aF778.0
aF1156.0
aF1291.0
aF553.0
aF618.0
aF661.0
aF276.0
aF993.0
aF807.0
aF420.0
aF719.0
aF477.0
aF37.0
aF1409.0
aF1398.0
aF144.0
aF914.0
aF985.0
aF382.0
aF1300.0
aF197.0
aF715.0
aF837.0
aF845.0
aF1204.0
aF741.0
asF79.0
(lp80
F1336.0
aF416.0
aF1320.0
aF782.0
aF174.0
aF510.0
aF1065.0
aF1201.0
aF127.0
aF694.0
aF577.0
aF590.0
aF624.0
aF1335.0
aF302.0
aF327.0
aF1175.0
aF904.0
aF172.0
aF677.0
aF762.0
aF618.0
aF245.0
aF373.0
aF888.0
aF702.0
aF213.0
aF113.0
aF22.0
aF753.0
aF870.0
aF1376.0
aF559.0
aF185.0
aF946.0
aF551.0
aF248.0
aF41.0
aF1226.0
aF31.0
aF180.0
aF212.0
asF80.0
(lp81
F788.0
aF509.0
aF149.0
aF1371.0
aF987.0
aF1374.0
aF1411.0
aF127.0
aF360.0
aF1002.0
aF1338.0
aF1156.0
aF188.0
aF861.0
aF553.0
aF762.0
aF98.0
aF618.0
aF966.0
aF984.0
aF225.0
aF420.0
aF835.0
aF427.0
aF486.0
aF1390.0
aF382.0
aF826.0
aF469.0
aF1081.0
aF1068.0
aF100.0
aF619.0
aF1092.0
aF1257.0
aF837.0
aF520.0
aF181.0
aF42.0
aF462.0
aF500.0
aF107.0
asF81.0
(lp82
F1114.0
aF1294.0
aF1047.0
aF330.0
aF940.0
aF160.0
aF899.0
aF483.0
aF1333.0
aF1002.0
aF532.0
aF1182.0
aF257.0
aF452.0
aF1248.0
aF993.0
aF1197.0
aF477.0
aF464.0
aF750.0
aF282.0
aF119.0
aF537.0
aF753.0
aF1297.0
aF342.0
aF1217.0
aF559.0
aF399.0
aF946.0
aF1103.0
aF280.0
aF138.0
aF407.0
aF491.0
aF972.0
aF1092.0
aF524.0
aF841.0
aF717.0
aF155.0
aF107.0
asF82.0
(lp83
F81.0
aF446.0
aF304.0
aF739.0
aF782.0
aF629.0
aF207.0
aF1177.0
aF136.0
aF65.0
aF1201.0
aF402.0
aF633.0
aF1225.0
aF353.0
aF1182.0
aF623.0
aF1007.0
aF614.0
aF245.0
aF757.0
aF316.0
aF464.0
aF48.0
aF6.0
aF760.0
aF634.0
aF240.0
aF385.0
aF134.0
aF936.0
aF1217.0
aF1026.0
aF185.0
aF1224.0
aF153.0
aF551.0
aF1206.0
aF1287.0
aF181.0
aF341.0
asF83.0
(lp84
F1180.0
aF416.0
aF671.0
aF803.0
aF546.0
aF362.0
aF1002.0
aF642.0
aF18.0
aF904.0
aF697.0
aF1349.0
aF1248.0
aF1291.0
aF828.0
aF993.0
aF613.0
aF813.0
aF1214.0
aF760.0
aF1091.0
aF872.0
aF246.0
aF282.0
aF1152.0
aF57.0
aF382.0
aF682.0
aF14.0
aF0.0
aF1274.0
aF1264.0
aF1103.0
aF192.0
aF995.0
aF1028.0
aF991.0
aF1040.0
aF1116.0
aF196.0
aF817.0
asF84.0
(lp85
F1286.0
aF253.0
aF105.0
aF709.0
aF941.0
aF65.0
aF1117.0
aF295.0
aF403.0
aF642.0
aF955.0
aF903.0
aF177.0
aF787.0
aF540.0
aF861.0
aF950.0
aF712.0
aF245.0
aF488.0
aF757.0
aF667.0
aF724.0
aF597.0
aF1152.0
aF325.0
aF538.0
aF1369.0
aF844.0
aF682.0
aF318.0
aF1081.0
aF1302.0
aF308.0
aF1135.0
aF229.0
aF280.0
aF248.0
aF991.0
aF578.0
aF107.0
asF85.0
(lp86
F881.0
aF507.0
aF1391.0
aF30.0
aF65.0
aF1267.0
aF568.0
aF850.0
aF810.0
aF402.0
aF1225.0
aF1256.0
aF695.0
aF514.0
aF614.0
aF535.0
aF547.0
aF512.0
aF488.0
aF1339.0
aF92.0
aF1187.0
aF760.0
aF724.0
aF1407.0
aF503.0
aF1344.0
aF1355.0
aF398.0
aF909.0
aF1217.0
aF1135.0
aF1206.0
aF1121.0
aF1298.0
aF77.0
aF31.0
aF915.0
aF449.0
asF86.0
(lp87
F1209.0
aF164.0
aF782.0
aF1391.0
aF1267.0
aF545.0
aF402.0
aF127.0
aF954.0
aF158.0
aF692.0
aF1256.0
aF903.0
aF302.0
aF403.0
aF865.0
aF98.0
aF919.0
aF1400.0
aF1048.0
aF45.0
aF191.0
aF601.0
aF1288.0
aF1234.0
aF144.0
aF1152.0
aF914.0
aF936.0
aF1145.0
aF560.0
aF94.0
aF264.0
aF913.0
aF832.0
aF75.0
aF77.0
aF31.0
aF397.0
asF87.0
(lp88
F214.0
aF32.0
aF907.0
aF343.0
aF782.0
aF1368.0
aF1159.0
aF797.0
aF311.0
aF1391.0
aF1069.0
aF1176.0
aF24.0
aF404.0
aF947.0
aF1256.0
aF806.0
aF787.0
aF518.0
aF488.0
aF482.0
aF999.0
aF601.0
aF1083.0
aF678.0
aF760.0
aF724.0
aF364.0
aF1234.0
aF163.0
aF628.0
aF215.0
aF946.0
aF551.0
aF1314.0
aF1206.0
aF819.0
aF758.0
aF578.0
asF88.0
(lp89
F830.0
aF304.0
aF739.0
aF1170.0
aF709.0
aF386.0
aF411.0
aF30.0
aF1292.0
aF1267.0
aF988.0
aF692.0
aF302.0
aF779.0
aF1021.0
aF778.0
aF697.0
aF1044.0
aF309.0
aF535.0
aF618.0
aF245.0
aF1058.0
aF415.0
aF427.0
aF340.0
aF144.0
aF1026.0
aF560.0
aF1224.0
aF94.0
aF166.0
aF153.0
aF956.0
aF848.0
aF1272.0
aF1279.0
aF155.0
asF89.0
(lp90
F563.0
aF238.0
aF60.0
aF642.0
aF1084.0
aF1015.0
aF812.0
aF1352.0
aF535.0
aF966.0
aF661.0
aF594.0
aF1099.0
aF950.0
aF732.0
aF728.0
aF1048.0
aF194.0
aF888.0
aF46.0
aF932.0
aF976.0
aF760.0
aF724.0
aF1136.0
aF750.0
aF1152.0
aF1390.0
aF1250.0
aF790.0
aF248.0
aF287.0
aF47.0
aF1257.0
aF130.0
aF181.0
aF915.0
aF894.0
asF90.0
(lp91
F2.0
aF105.0
aF11.0
aF987.0
aF1374.0
aF1031.0
aF1366.0
aF1002.0
aF642.0
aF1394.0
aF18.0
aF623.0
aF1321.0
aF778.0
aF26.0
aF861.0
aF276.0
aF950.0
aF1200.0
aF813.0
aF534.0
aF488.0
aF365.0
aF1369.0
aF760.0
aF1344.0
aF486.0
aF597.0
aF1145.0
aF611.0
aF920.0
aF848.0
aF198.0
aF772.0
aF832.0
aF75.0
aF367.0
aF845.0
asF91.0
(lp92
F684.0
aF32.0
aF755.0
aF799.0
aF132.0
aF862.0
aF686.0
aF752.0
aF456.0
aF206.0
aF392.0
aF642.0
aF1340.0
aF904.0
aF413.0
aF514.0
aF1168.0
aF1248.0
aF505.0
aF227.0
aF409.0
aF724.0
aF361.0
aF1359.0
aF1161.0
aF356.0
aF1390.0
aF1146.0
aF222.0
aF1135.0
aF78.0
aF287.0
aF198.0
aF433.0
aF632.0
aF180.0
aF186.0
aF1204.0
asF92.0
(lp93
F1209.0
aF1180.0
aF2.0
aF709.0
aF142.0
aF708.0
aF903.0
aF1169.0
aF533.0
aF535.0
aF732.0
aF1334.0
aF1048.0
aF92.0
aF213.0
aF1187.0
aF760.0
aF178.0
aF942.0
aF906.0
aF936.0
aF1224.0
aF572.0
aF215.0
aF551.0
aF1367.0
aF248.0
aF995.0
aF491.0
aF195.0
aF1287.0
aF299.0
aF1116.0
aF31.0
aF155.0
aF691.0
aF894.0
aF869.0
asF93.0
(lp94
F32.0
aF443.0
aF1252.0
aF616.0
aF355.0
aF730.0
aF471.0
aF927.0
aF752.0
aF1267.0
aF994.0
aF1176.0
aF257.0
aF806.0
aF52.0
aF1143.0
aF535.0
aF488.0
aF846.0
aF92.0
aF757.0
aF706.0
aF549.0
aF634.0
aF134.0
aF1403.0
aF372.0
aF554.0
aF822.0
aF1206.0
aF261.0
aF195.0
aF578.0
aF75.0
aF632.0
aF478.0
aF717.0
asF94.0
(lp95
F763.0
aF253.0
aF1047.0
aF1150.0
aF251.0
aF345.0
aF266.0
aF1076.0
aF1008.0
aF380.0
aF1176.0
aF206.0
aF1080.0
aF610.0
aF1175.0
aF1163.0
aF475.0
aF861.0
aF762.0
aF547.0
aF373.0
aF526.0
aF1223.0
aF1090.0
aF1217.0
aF318.0
aF822.0
aF215.0
aF655.0
aF1312.0
aF261.0
aF120.0
aF777.0
aF585.0
aF196.0
aF1278.0
asF95.0
(lp96
F1408.0
aF509.0
aF1069.0
aF994.0
aF1374.0
aF1293.0
aF127.0
aF812.0
aF778.0
aF276.0
aF547.0
aF647.0
aF245.0
aF194.0
aF1369.0
aF670.0
aF361.0
aF1000.0
aF1409.0
aF415.0
aF427.0
aF134.0
aF597.0
aF325.0
aF538.0
aF611.0
aF469.0
aF946.0
aF287.0
aF69.0
aF602.0
aF1121.0
aF524.0
aF173.0
aF181.0
aF894.0
asF96.0
(lp97
F825.0
aF9.0
aF208.0
aF803.0
aF30.0
aF1065.0
aF1374.0
aF274.0
aF50.0
aF33.0
aF1059.0
aF1211.0
aF1321.0
aF1216.0
aF697.0
aF176.0
aF535.0
aF618.0
aF194.0
aF482.0
aF178.0
aF1355.0
aF1152.0
aF342.0
aF560.0
aF811.0
aF399.0
aF69.0
aF772.0
aF96.0
aF602.0
aF524.0
aF585.0
aF1204.0
aF915.0
aF341.0
asF97.0
(lp98
F836.0
aF109.0
aF1371.0
aF1254.0
aF690.0
aF971.0
aF514.0
aF535.0
aF966.0
aF1197.0
aF1328.0
aF225.0
aF194.0
aF728.0
aF835.0
aF406.0
aF282.0
aF597.0
aF957.0
aF144.0
aF769.0
aF382.0
aF582.0
aF997.0
aF1300.0
aF1081.0
aF1302.0
aF1274.0
aF242.0
aF421.0
aF31.0
aF841.0
aF845.0
aF462.0
aF915.0
aF341.0
asF98.0
(lp99
F99.0
aF1111.0
aF1006.0
aF521.0
aF843.0
aF624.0
aF1002.0
aF636.0
aF955.0
aF695.0
aF1039.0
aF263.0
aF618.0
aF993.0
aF732.0
aF807.0
aF1369.0
aF932.0
aF1136.0
aF1223.0
aF325.0
aF1358.0
aF986.0
aF1297.0
aF844.0
aF1068.0
aF467.0
aF1396.0
aF125.0
aF772.0
aF1257.0
aF75.0
aF520.0
aF1022.0
aF107.0
aF869.0
asF99.0
(lp100
F496.0
aF416.0
aF882.0
aF414.0
aF1305.0
aF1361.0
aF452.0
aF780.0
aF1156.0
aF993.0
aF728.0
aF856.0
aF191.0
aF46.0
aF477.0
aF757.0
aF213.0
aF750.0
aF605.0
aF914.0
aF658.0
aF986.0
aF582.0
aF902.0
aF1224.0
aF1068.0
aF1053.0
aF1028.0
aF1329.0
aF725.0
aF1037.0
aF608.0
aF1035.0
aF741.0
aF894.0
asF100.0
(lp101
F1286.0
aF1047.0
aF629.0
aF411.0
aF983.0
aF583.0
aF1002.0
aF1044.0
aF533.0
aF227.0
aF547.0
aF365.0
aF1128.0
aF194.0
aF1118.0
aF724.0
aF361.0
aF282.0
aF1223.0
aF824.0
aF325.0
aF1308.0
aF897.0
aF342.0
aF94.0
aF69.0
aF991.0
aF1040.0
aF777.0
aF524.0
aF585.0
aF41.0
aF196.0
aF1278.0
asF101.0
(lp102
F273.0
aF1134.0
aF938.0
aF1386.0
aF545.0
aF141.0
aF803.0
aF193.0
aF1094.0
aF1333.0
aF983.0
aF853.0
aF1163.0
aF635.0
aF162.0
aF518.0
aF649.0
aF512.0
aF1128.0
aF271.0
aF1344.0
aF361.0
aF104.0
aF902.0
aF0.0
aF811.0
aF1081.0
aF467.0
aF198.0
aF1341.0
aF691.0
aF894.0
aF451.0
asF102.0
(lp103
F718.0
aF388.0
aF847.0
aF1031.0
aF140.0
aF33.0
aF1094.0
aF1176.0
aF656.0
aF745.0
aF413.0
aF1143.0
aF512.0
aF1334.0
aF409.0
aF1191.0
aF6.0
aF1214.0
aF1355.0
aF494.0
aF415.0
aF423.0
aF57.0
aF794.0
aF1217.0
aF1376.0
aF528.0
aF0.0
aF190.0
aF69.0
aF1287.0
aF1116.0
aF371.0
asF103.0
(lp104
F1283.0
aF773.0
aF615.0
aF1180.0
aF20.0
aF1074.0
aF393.0
aF106.0
aF28.0
aF1176.0
aF224.0
aF360.0
aF1002.0
aF642.0
aF1394.0
aF1153.0
aF1096.0
aF697.0
aF535.0
aF888.0
aF182.0
aF499.0
aF1327.0
aF835.0
aF415.0
aF282.0
aF558.0
aF88.0
aF785.0
aF1224.0
aF792.0
aF822.0
aF186.0
asF104.0
(lp105
F167.0
aF1294.0
aF416.0
aF882.0
aF386.0
aF396.0
aF618.0
aF1099.0
aF290.0
aF245.0
aF884.0
aF129.0
aF976.0
aF750.0
aF1049.0
aF1009.0
aF761.0
aF1379.0
aF558.0
aF1152.0
aF766.0
aF88.0
aF1250.0
aF1157.0
aF1384.0
aF467.0
aF171.0
aF235.0
aF1053.0
aF1028.0
aF1329.0
aF202.0
aF894.0
asF105.0
(lp106
F203.0
aF64.0
aF1060.0
aF839.0
aF756.0
aF1014.0
aF621.0
aF600.0
aF1366.0
aF903.0
aF1084.0
aF514.0
aF861.0
aF505.0
aF978.0
aF512.0
aF1118.0
aF464.0
aF1214.0
aF706.0
aF760.0
aF440.0
aF398.0
aF144.0
aF57.0
aF794.0
aF870.0
aF551.0
aF491.0
aF913.0
aF1121.0
aF585.0
aF915.0
asF106.0
(lp107
F1382.0
aF616.0
aF416.0
aF28.0
aF1372.0
aF577.0
aF313.0
aF903.0
aF904.0
aF697.0
aF877.0
aF1248.0
aF1291.0
aF518.0
aF547.0
aF888.0
aF464.0
aF1214.0
aF244.0
aF325.0
aF57.0
aF826.0
aF811.0
aF399.0
aF467.0
aF429.0
aF913.0
aF23.0
aF1116.0
aF31.0
aF34.0
aF341.0
aF894.0
asF107.0
(lp108
F492.0
aF416.0
aF754.0
aF1386.0
aF33.0
aF1002.0
aF745.0
aF413.0
aF1388.0
aF1291.0
aF294.0
aF227.0
aF984.0
aF872.0
aF962.0
aF144.0
aF936.0
aF844.0
aF528.0
aF1300.0
aF1189.0
aF1224.0
aF811.0
aF1135.0
aF390.0
aF262.0
aF1061.0
aF1028.0
aF91.0
aF771.0
aF195.0
aF913.0
aF31.0
asF108.0
(lp109
F593.0
aF821.0
aF64.0
aF1180.0
aF616.0
aF1320.0
aF847.0
aF311.0
aF63.0
aF656.0
aF62.0
aF1335.0
aF612.0
aF947.0
aF1084.0
aF1112.0
aF695.0
aF879.0
aF1321.0
aF204.0
aF512.0
aF549.0
aF634.0
aF22.0
aF870.0
aF675.0
aF1121.0
aF77.0
aF31.0
aF371.0
aF915.0
aF339.0
asF109.0
(lp110
F167.0
aF111.0
aF1245.0
aF1277.0
aF19.0
aF1094.0
aF600.0
aF1249.0
aF436.0
aF515.0
aF1086.0
aF98.0
aF1099.0
aF1236.0
aF290.0
aF245.0
aF888.0
aF1378.0
aF1043.0
aF84.0
aF1164.0
aF985.0
aF1146.0
aF1224.0
aF1120.0
aF1061.0
aF1028.0
aF96.0
aF701.0
aF481.0
aF1227.0
aF1122.0
asF110.0
(lp111
F882.0
aF1311.0
aF553.0
aF535.0
aF1151.0
aF1027.0
aF993.0
aF900.0
aF867.0
aF667.0
aF942.0
aF1067.0
aF703.0
aF753.0
aF538.0
aF986.0
aF1070.0
aF1369.0
aF382.0
aF318.0
aF469.0
aF1081.0
aF790.0
aF1396.0
aF248.0
aF264.0
aF602.0
aF608.0
aF841.0
aF196.0
aF915.0
asF111.0
(lp112
F587.0
aF401.0
aF718.0
aF450.0
aF355.0
aF839.0
aF1391.0
aF65.0
aF346.0
aF842.0
aF1338.0
aF695.0
aF1392.0
aF1355.0
aF1058.0
aF377.0
aF385.0
aF352.0
aF340.0
aF480.0
aF640.0
aF1157.0
aF682.0
aF628.0
aF94.0
aF819.0
aF832.0
aF173.0
aF31.0
aF1108.0
aF1346.0
asF112.0
(lp113
F910.0
aF573.0
aF305.0
aF1269.0
aF1386.0
aF934.0
aF810.0
aF189.0
aF347.0
aF124.0
aF237.0
aF642.0
aF653.0
aF1332.0
aF1096.0
aF687.0
aF1140.0
aF210.0
aF98.0
aF512.0
aF307.0
aF768.0
aF464.0
aF818.0
aF1376.0
aF280.0
aF1312.0
aF287.0
aF1092.0
aF212.0
aF97.0
asF113.0
(lp114
F1047.0
aF960.0
aF834.0
aF738.0
aF1366.0
aF532.0
aF56.0
aF404.0
aF18.0
aF842.0
aF904.0
aF418.0
aF1007.0
aF787.0
aF533.0
aF547.0
aF1296.0
aF1237.0
aF1327.0
aF1056.0
aF648.0
aF14.0
aF963.0
aF559.0
aF467.0
aF665.0
aF772.0
aF632.0
aF520.0
aF186.0
asF114.0
(lp115
F1047.0
aF782.0
aF386.0
aF1111.0
aF842.0
aF535.0
aF245.0
aF488.0
aF1355.0
aF1000.0
aF321.0
aF340.0
aF325.0
aF1297.0
aF342.0
aF1217.0
aF844.0
aF582.0
aF1300.0
aF551.0
aF1030.0
aF848.0
aF198.0
aF1341.0
aF96.0
aF832.0
aF585.0
aF632.0
aF114.0
aF1109.0
asF115.0
(lp116
F676.0
aF1045.0
aF206.0
aF896.0
aF779.0
aF812.0
aF1248.0
aF547.0
aF813.0
aF488.0
aF757.0
aF688.0
aF1355.0
aF144.0
aF753.0
aF325.0
aF1390.0
aF1369.0
aF382.0
aF1026.0
aF241.0
aF1300.0
aF1135.0
aF265.0
aF161.0
aF463.0
aF845.0
aF107.0
aF915.0
asF116.0
(lp117
F664.0
aF304.0
aF709.0
aF1386.0
aF1232.0
aF568.0
aF695.0
aF998.0
aF1140.0
aF418.0
aF919.0
aF365.0
aF1048.0
aF409.0
aF201.0
aF1091.0
aF942.0
aF1058.0
aF486.0
aF703.0
aF480.0
aF437.0
aF382.0
aF241.0
aF94.0
aF100.0
aF982.0
aF520.0
aF114.0
asF117.0
(lp118
F943.0
aF616.0
aF574.0
aF622.0
aF28.0
aF1111.0
aF626.0
aF642.0
aF612.0
aF947.0
aF191.0
aF92.0
aF804.0
aF1347.0
aF1056.0
aF566.0
aF1398.0
aF672.0
aF538.0
aF1302.0
aF572.0
aF235.0
aF977.0
aF96.0
aF880.0
aF181.0
aF866.0
aF186.0
asF118.0
(lp119
F1228.0
aF93.0
aF698.0
aF847.0
aF1186.0
aF1014.0
aF33.0
aF656.0
aF1169.0
aF971.0
aF710.0
aF877.0
aF614.0
aF309.0
aF1343.0
aF501.0
aF512.0
aF409.0
aF1191.0
aF678.0
aF464.0
aF1406.0
aF1357.0
aF559.0
aF560.0
aF0.0
aF675.0
aF69.0
asF119.0
(lp120
F1286.0
aF105.0
aF370.0
aF583.0
aF1335.0
aF1112.0
aF1211.0
aF778.0
aF697.0
aF1296.0
aF1200.0
aF409.0
aF601.0
aF1214.0
aF1056.0
aF942.0
aF814.0
aF844.0
aF1026.0
aF560.0
aF153.0
aF995.0
aF287.0
aF198.0
aF265.0
aF819.0
aF815.0
aF1121.0
asF120.0
(lp121
F455.0
aF709.0
aF967.0
aF431.0
aF8.0
aF332.0
aF890.0
aF1361.0
aF1397.0
aF290.0
aF1131.0
aF827.0
aF1056.0
aF1009.0
aF973.0
aF240.0
aF1217.0
aF153.0
aF1135.0
aF1387.0
aF248.0
aF1272.0
aF1193.0
aF491.0
aF120.0
aF982.0
aF186.0
aF1038.0
asF121.0
(lp122
F929.0
aF573.0
aF3.0
aF483.0
aF974.0
aF983.0
aF863.0
aF1203.0
aF514.0
aF1296.0
aF442.0
aF488.0
aF1118.0
aF92.0
aF1187.0
aF178.0
aF942.0
aF951.0
aF423.0
aF906.0
aF1219.0
aF166.0
aF1367.0
aF491.0
aF772.0
aF31.0
aF691.0
aF894.0
asF122.0
(lp123
F830.0
aF304.0
aF497.0
aF1360.0
aF507.0
aF847.0
aF1159.0
aF730.0
aF754.0
aF131.0
aF1181.0
aF284.0
aF692.0
aF1005.0
aF1167.0
aF162.0
aF227.0
aF999.0
aF1214.0
aF423.0
aF22.0
aF57.0
aF1390.0
aF946.0
aF1206.0
aF390.0
aF339.0
asF123.0
(lp124
F1294.0
aF709.0
aF754.0
aF797.0
aF686.0
aF266.0
aF1293.0
aF15.0
aF127.0
aF778.0
aF547.0
aF1048.0
aF194.0
aF1344.0
aF427.0
aF703.0
aF597.0
aF1369.0
aF382.0
aF682.0
aF247.0
aF399.0
aF467.0
aF248.0
aF41.0
aF367.0
aF845.0
asF124.0
(lp125
F739.0
aF782.0
aF709.0
aF940.0
aF754.0
aF106.0
aF752.0
aF1111.0
aF988.0
aF1397.0
aF227.0
aF512.0
aF1048.0
aF6.0
aF1214.0
aF703.0
aF1300.0
aF1224.0
aF1081.0
aF838.0
aF1299.0
aF1017.0
aF837.0
aF845.0
aF1253.0
aF1158.0
asF125.0
(lp126
F497.0
aF718.0
aF671.0
aF474.0
aF575.0
aF922.0
aF833.0
aF1096.0
aF128.0
aF177.0
aF945.0
aF661.0
aF501.0
aF978.0
aF1400.0
aF1018.0
aF1107.0
aF405.0
aF256.0
aF715.0
aF1057.0
aF308.0
aF956.0
aF1251.0
aF1230.0
aF781.0
asF126.0
(lp127
F1391.0
aF106.0
aF1293.0
aF692.0
aF947.0
aF903.0
aF971.0
aF778.0
aF645.0
aF250.0
aF1334.0
aF1344.0
aF1355.0
aF835.0
aF1161.0
aF486.0
aF703.0
aF597.0
aF147.0
aF1300.0
aF811.0
aF229.0
aF69.0
aF265.0
aF845.0
aF894.0
asF127.0
(lp128
F328.0
aF545.0
aF1207.0
aF1015.0
aF697.0
aF1195.0
aF645.0
aF432.0
aF978.0
aF512.0
aF1334.0
aF728.0
aF420.0
aF719.0
aF1369.0
aF1359.0
aF246.0
aF1139.0
aF1067.0
aF682.0
aF147.0
aF467.0
aF138.0
aF1040.0
aF196.0
aF741.0
asF128.0
(lp129
F416.0
aF1184.0
aF752.0
aF545.0
aF380.0
aF95.0
aF127.0
aF444.0
aF842.0
aF1338.0
aF695.0
aF52.0
aF514.0
aF1044.0
aF712.0
aF919.0
aF835.0
aF356.0
aF282.0
aF651.0
aF1081.0
aF931.0
aF848.0
aF264.0
aF1279.0
aF632.0
asF129.0
(lp130
F330.0
aF73.0
aF266.0
aF28.0
aF189.0
aF687.0
aF1313.0
aF312.0
aF1143.0
aF432.0
aF993.0
aF1200.0
aF1339.0
aF187.0
aF595.0
aF325.0
aF1297.0
aF844.0
aF147.0
aF16.0
aF171.0
aF198.0
aF524.0
aF1257.0
aF632.0
aF1022.0
asF130.0
(lp131
F389.0
aF742.0
aF1405.0
aF131.0
aF184.0
aF257.0
aF1112.0
aF635.0
aF475.0
aF732.0
aF1237.0
aF751.0
aF724.0
aF361.0
aF835.0
aF494.0
aF523.0
aF325.0
aF1369.0
aF1104.0
aF1206.0
aF69.0
aF562.0
aF473.0
aF155.0
asF131.0
(lp132
F32.0
aF773.0
aF988.0
aF33.0
aF695.0
aF1007.0
aF359.0
aF861.0
aF218.0
aF1118.0
aF1187.0
aF233.0
aF760.0
aF634.0
aF1217.0
aF1026.0
aF318.0
aF166.0
aF195.0
aF913.0
aF1116.0
aF31.0
aF1204.0
aF234.0
aF869.0
asF132.0
(lp133
F763.0
aF1228.0
aF1160.0
aF506.0
aF416.0
aF545.0
aF483.0
aF543.0
aF8.0
aF1364.0
aF128.0
aF743.0
aF728.0
aF724.0
aF427.0
aF898.0
aF356.0
aF1107.0
aF282.0
aF342.0
aF902.0
aF1135.0
aF491.0
aF161.0
aF31.0
asF133.0
(lp134
F109.0
aF1371.0
aF60.0
aF452.0
aF877.0
aF553.0
aF547.0
aF993.0
aF512.0
aF989.0
aF835.0
aF538.0
aF342.0
aF1157.0
aF682.0
aF469.0
aF822.0
aF1274.0
aF1242.0
aF1017.0
aF96.0
aF23.0
aF75.0
aF741.0
aF894.0
asF134.0
(lp135
F64.0
aF1209.0
aF718.0
aF616.0
aF730.0
aF1391.0
aF1065.0
aF810.0
aF33.0
aF1212.0
aF903.0
aF1397.0
aF1317.0
aF1051.0
aF22.0
aF672.0
aF936.0
aF1390.0
aF1206.0
aF1272.0
aF69.0
aF1121.0
aF1298.0
aF31.0
aF371.0
asF135.0
(lp136
F821.0
aF763.0
aF716.0
aF776.0
aF718.0
aF574.0
aF25.0
aF1176.0
aF1340.0
aF917.0
aF533.0
aF518.0
aF613.0
aF646.0
aF150.0
aF282.0
aF703.0
aF648.0
aF1217.0
aF675.0
aF1030.0
aF287.0
aF491.0
aF41.0
aF196.0
asF136.0
(lp137
F497.0
aF531.0
aF1047.0
aF302.0
aF955.0
aF863.0
aF778.0
aF780.0
aF613.0
aF245.0
aF846.0
aF942.0
aF1409.0
aF703.0
aF134.0
aF144.0
aF1090.0
aF1300.0
aF1224.0
aF675.0
aF265.0
aF1116.0
aF181.0
aF196.0
asF137.0
(lp138
F64.0
aF1382.0
aF563.0
aF1159.0
aF622.0
aF140.0
aF810.0
aF206.0
aF1363.0
aF1163.0
aF879.0
aF435.0
aF294.0
aF488.0
aF92.0
aF415.0
aF1023.0
aF794.0
aF715.0
aF1135.0
aF551.0
aF959.0
aF915.0
aF869.0
asF138.0
(lp139
F901.0
aF132.0
aF20.0
aF1374.0
aF1084.0
aF1211.0
aF1148.0
aF1200.0
aF757.0
aF361.0
aF1145.0
aF1224.0
aF811.0
aF675.0
aF1396.0
aF578.0
aF1298.0
aF75.0
aF181.0
aF845.0
aF462.0
aF341.0
aF869.0
aF746.0
asF139.0
(lp140
F689.0
aF109.0
aF940.0
aF348.0
aF1313.0
aF778.0
aF697.0
aF1039.0
aF219.0
aF188.0
aF535.0
aF276.0
aF942.0
aF385.0
aF1067.0
aF766.0
aF849.0
aF1250.0
aF582.0
aF1302.0
aF1274.0
aF287.0
aF639.0
aF759.0
asF140.0
(lp141
F60.0
aF1353.0
aF521.0
aF939.0
aF779.0
aF1211.0
aF123.0
aF1151.0
aF1237.0
aF270.0
aF1087.0
aF1339.0
aF1378.0
aF364.0
aF282.0
aF1093.0
aF814.0
aF1300.0
aF1068.0
aF665.0
aF198.0
aF1341.0
aF777.0
aF1227.0
asF141.0
(lp142
F1252.0
aF799.0
aF476.0
aF1047.0
aF709.0
aF1111.0
aF1143.0
aF1331.0
aF420.0
aF499.0
aF1369.0
aF757.0
aF667.0
aF724.0
aF1398.0
aF282.0
aF57.0
aF870.0
aF826.0
aF1384.0
aF1102.0
aF287.0
aF1061.0
aF31.0
asF142.0
(lp143
F739.0
aF1180.0
aF493.0
aF847.0
aF629.0
aF65.0
aF1225.0
aF842.0
aF645.0
aF813.0
aF757.0
aF316.0
aF464.0
aF942.0
aF361.0
aF1359.0
aF936.0
aF1390.0
aF1217.0
aF1026.0
aF318.0
aF1298.0
aF77.0
aF449.0
asF143.0
(lp144
F303.0
aF899.0
aF622.0
aF1039.0
aF432.0
aF993.0
aF667.0
aF1136.0
aF1344.0
aF246.0
aF282.0
aF325.0
aF1369.0
aF844.0
aF582.0
aF997.0
aF1068.0
aF91.0
aF1329.0
aF1017.0
aF1230.0
aF841.0
aF915.0
aF746.0
asF144.0
(lp145
F1336.0
aF305.0
aF1186.0
aF1374.0
aF1293.0
aF1045.0
aF740.0
aF1015.0
aF296.0
aF1216.0
aF1334.0
aF464.0
aF61.0
aF898.0
aF356.0
aF335.0
aF229.0
aF484.0
aF517.0
aF181.0
aF845.0
aF34.0
aF339.0
asF145.0
(lp146
F167.0
aF799.0
aF573.0
aF411.0
aF28.0
aF18.0
aF452.0
aF514.0
aF780.0
aF1216.0
aF188.0
aF535.0
aF1082.0
aF1043.0
aF477.0
aF464.0
aF415.0
aF769.0
aF685.0
aF135.0
aF31.0
aF196.0
aF1204.0
asF146.0
(lp147
F1315.0
aF847.0
aF1304.0
aF118.0
aF970.0
aF1335.0
aF586.0
aF1153.0
aF1163.0
aF1397.0
aF778.0
aF432.0
aF613.0
aF534.0
aF807.0
aF1378.0
aF92.0
aF233.0
aF835.0
aF113.0
aF163.0
aF528.0
aF34.0
asF147.0
(lp148
F1047.0
aF709.0
aF1060.0
aF903.0
aF1364.0
aF1007.0
aF535.0
aF1016.0
aF884.0
aF48.0
aF1187.0
aF760.0
aF1058.0
aF356.0
aF906.0
aF185.0
aF94.0
aF429.0
aF491.0
aF585.0
aF31.0
aF1204.0
aF894.0
asF148.0
(lp149
F809.0
aF64.0
aF497.0
aF1031.0
aF633.0
aF787.0
aF309.0
aF535.0
aF1237.0
aF851.0
aF512.0
aF488.0
aF768.0
aF1187.0
aF1407.0
aF1355.0
aF385.0
aF144.0
aF871.0
aF936.0
aF145.0
aF77.0
aF181.0
asF149.0
(lp150
F593.0
aF497.0
aF1209.0
aF81.0
aF73.0
aF698.0
aF847.0
aF1060.0
aF1076.0
aF1014.0
aF131.0
aF695.0
aF438.0
aF512.0
aF1237.0
aF316.0
aF1342.0
aF611.0
aF465.0
aF334.0
aF215.0
aF675.0
aF181.0
asF150.0
(lp151
F587.0
aF803.0
aF1031.0
aF1293.0
aF274.0
aF1094.0
aF583.0
aF158.0
aF842.0
aF1015.0
aF614.0
aF276.0
aF816.0
aF547.0
aF667.0
aF1194.0
aF282.0
aF551.0
aF675.0
aF1387.0
aF248.0
aF161.0
aF1121.0
asF151.0
(lp152
F64.0
aF718.0
aF1360.0
aF336.0
aF207.0
aF142.0
aF721.0
aF1256.0
aF863.0
aF117.0
aF204.0
aF846.0
aF6.0
aF760.0
aF377.0
aF385.0
aF936.0
aF1376.0
aF1233.0
aF959.0
aF77.0
aF1284.0
aF1346.0
asF152.0
(lp153
F755.0
aF450.0
aF109.0
aF1012.0
aF1094.0
aF659.0
aF184.0
aF18.0
aF1401.0
aF853.0
aF1322.0
aF1392.0
aF1200.0
aF702.0
aF503.0
aF361.0
aF364.0
aF883.0
aF491.0
aF772.0
aF758.0
aF473.0
aF1278.0
asF153.0
(lp154
F1252.0
aF126.0
aF718.0
aF739.0
aF311.0
aF63.0
aF508.0
aF402.0
aF470.0
aF1212.0
aF1256.0
aF614.0
aF488.0
aF601.0
aF706.0
aF724.0
aF634.0
aF682.0
aF78.0
aF261.0
aF77.0
aF869.0
asF154.0
(lp155
F1391.0
aF1065.0
aF752.0
aF545.0
aF988.0
aF656.0
aF127.0
aF903.0
aF1349.0
aF614.0
aF1118.0
aF667.0
aF1051.0
aF340.0
aF753.0
aF1376.0
aF551.0
aF675.0
aF991.0
aF41.0
aF31.0
aF691.0
asF155.0
(lp156
F1111.0
aF690.0
aF812.0
aF1361.0
aF778.0
aF618.0
aF966.0
aF290.0
aF512.0
aF499.0
aF846.0
aF750.0
aF935.0
aF1390.0
aF1090.0
aF582.0
aF248.0
aF287.0
aF1329.0
aF198.0
aF524.0
aF746.0
asF156.0
(lp157
F1209.0
aF557.0
aF616.0
aF493.0
aF782.0
aF355.0
aF629.0
aF839.0
aF1065.0
aF954.0
aF1140.0
aF1168.0
aF1339.0
aF398.0
aF1164.0
aF609.0
aF559.0
aF1206.0
aF195.0
aF1279.0
aF1346.0
aF341.0
asF157.0
(lp158
F1133.0
aF1134.0
aF11.0
aF561.0
aF521.0
aF127.0
aF402.0
aF1280.0
aF124.0
aF313.0
aF1331.0
aF807.0
aF570.0
aF1339.0
aF1106.0
aF477.0
aF667.0
aF724.0
aF144.0
aF1068.0
aF428.0
aF397.0
asF158.0
(lp159
F1047.0
aF1029.0
aF1150.0
aF1267.0
aF131.0
aF1169.0
aF865.0
aF861.0
aF762.0
aF488.0
aF1118.0
aF757.0
aF464.0
aF870.0
aF318.0
aF651.0
aF822.0
aF675.0
aF1206.0
aF491.0
aF632.0
aF915.0
asF159.0
(lp160
F830.0
aF1055.0
aF1209.0
aF718.0
aF847.0
aF294.0
aF512.0
aF1399.0
aF488.0
aF233.0
aF1355.0
aF415.0
aF634.0
aF377.0
aF870.0
aF1217.0
aF528.0
aF153.0
aF1206.0
aF429.0
aF1121.0
aF31.0
asF160.0
(lp161
F1180.0
aF1074.0
aF11.0
aF60.0
aF127.0
aF1176.0
aF1084.0
aF183.0
aF418.0
aF1082.0
aF129.0
aF427.0
aF1125.0
aF703.0
aF582.0
aF16.0
aF171.0
aF198.0
aF520.0
aF481.0
aF1204.0
aF1038.0
asF161.0
(lp162
F735.0
aF1324.0
aF164.0
aF563.0
aF2.0
aF698.0
aF459.0
aF266.0
aF292.0
aF633.0
aF5.0
aF189.0
aF8.0
aF1303.0
aF884.0
aF1091.0
aF102.0
aF1379.0
aF605.0
aF1152.0
aF223.0
aF959.0
asF162.0
(lp163
F830.0
aF304.0
aF317.0
aF847.0
aF709.0
aF402.0
aF1175.0
aF1071.0
aF309.0
aF861.0
aF162.0
aF693.0
aF1359.0
aF22.0
aF1217.0
aF560.0
aF1224.0
aF166.0
aF1206.0
aF69.0
aF1078.0
aF341.0
asF163.0
(lp164
F1408.0
aF847.0
aF1148.0
aF162.0
aF923.0
aF950.0
aF1369.0
aF601.0
aF221.0
aF440.0
aF951.0
aF1049.0
aF538.0
aF1026.0
aF197.0
aF895.0
aF215.0
aF390.0
aF125.0
aF161.0
aF1257.0
asF164.0
(lp165
F44.0
aF152.0
aF1180.0
aF507.0
aF782.0
aF30.0
aF169.0
aF1015.0
aF1096.0
aF1163.0
aF998.0
aF294.0
aF1400.0
aF867.0
aF252.0
aF157.0
aF246.0
aF78.0
aF1102.0
aF1301.0
aF869.0
asF165.0
(lp166
F718.0
aF303.0
aF692.0
aF642.0
aF812.0
aF209.0
aF514.0
aF723.0
aF861.0
aF945.0
aF420.0
aF757.0
aF962.0
aF597.0
aF325.0
aF163.0
aF1217.0
aF280.0
aF1101.0
aF781.0
aF866.0
asF166.0
(lp167
F416.0
aF671.0
aF1391.0
aF953.0
aF266.0
aF580.0
aF436.0
aF1392.0
aF1213.0
aF488.0
aF1243.0
aF405.0
aF597.0
aF818.0
aF467.0
aF198.0
aF972.0
aF463.0
aF31.0
aF1204.0
aF759.0
asF167.0
(lp168
F1047.0
aF1371.0
aF642.0
aF1216.0
aF194.0
aF757.0
aF760.0
aF662.0
aF1125.0
aF356.0
aF1297.0
aF1369.0
aF522.0
aF287.0
aF991.0
aF1230.0
aF632.0
aF866.0
aF841.0
aF845.0
aF1235.0
asF168.0
(lp169
F44.0
aF739.0
aF1170.0
aF709.0
aF940.0
aF545.0
aF673.0
aF1075.0
aF302.0
aF690.0
aF828.0
aF276.0
aF38.0
aF1355.0
aF769.0
aF785.0
aF1224.0
aF1103.0
aF1116.0
aF397.0
aF1259.0
asF169.0
(lp170
F1149.0
aF1047.0
aF642.0
aF514.0
aF276.0
aF488.0
aF194.0
aF409.0
aF744.0
aF464.0
aF37.0
aF760.0
aF1125.0
aF1300.0
aF838.0
aF551.0
aF1367.0
aF1041.0
aF268.0
aF198.0
aF585.0
asF170.0
(lp171
F304.0
aF773.0
aF493.0
aF336.0
aF355.0
aF708.0
aF254.0
aF1212.0
aF1321.0
aF245.0
aF757.0
aF1359.0
aF398.0
aF640.0
aF465.0
aF1367.0
aF913.0
aF77.0
aF181.0
aF397.0
aF1259.0
asF171.0
(lp172
F593.0
aF388.0
aF3.0
aF987.0
aF1267.0
aF947.0
aF1096.0
aF695.0
aF376.0
aF1007.0
aF128.0
aF762.0
aF512.0
aF191.0
aF364.0
aF1342.0
aF415.0
aF822.0
aF390.0
aF772.0
aF869.0
asF172.0
(lp173
F718.0
aF778.0
aF1388.0
aF816.0
aF170.0
aF900.0
aF760.0
aF1344.0
aF1000.0
aF761.0
aF597.0
aF558.0
aF936.0
aF382.0
aF121.0
aF14.0
aF1396.0
aF1034.0
aF195.0
aF155.0
asF173.0
(lp174
F545.0
aF1391.0
aF127.0
aF877.0
aF553.0
aF900.0
aF1369.0
aF1355.0
aF703.0
aF325.0
aF382.0
aF1300.0
aF790.0
aF467.0
aF675.0
aF421.0
aF1257.0
aF841.0
aF196.0
aF915.0
asF174.0
(lp175
F2.0
aF1159.0
aF131.0
aF581.0
aF1169.0
aF971.0
aF128.0
aF865.0
aF539.0
aF1156.0
aF1131.0
aF867.0
aF409.0
aF760.0
aF682.0
aF153.0
aF715.0
aF1135.0
aF675.0
aF815.0
asF175.0
(lp176
F718.0
aF1360.0
aF847.0
aF604.0
aF1171.0
aF353.0
aF612.0
aF1221.0
aF309.0
aF768.0
aF607.0
aF385.0
aF22.0
aF1019.0
aF672.0
aF675.0
aF798.0
aF848.0
aF491.0
aF58.0
asF176.0
(lp177
F137.0
aF1047.0
aF1239.0
aF28.0
aF580.0
aF955.0
aF1340.0
aF853.0
aF410.0
aF919.0
aF488.0
aF1344.0
aF1107.0
aF1223.0
aF490.0
aF399.0
aF198.0
aF338.0
aF181.0
aF180.0
asF177.0
(lp178
F1382.0
aF132.0
aF507.0
aF249.0
aF568.0
aF974.0
aF438.0
aF1321.0
aF710.0
aF877.0
aF813.0
aF744.0
aF1344.0
aF440.0
aF796.0
aF1234.0
aF844.0
aF318.0
aF559.0
aF551.0
asF178.0
(lp179
F1047.0
aF60.0
aF425.0
aF1394.0
aF710.0
aF854.0
aF83.0
aF645.0
aF993.0
aF499.0
aF1136.0
aF1297.0
aF1396.0
aF428.0
aF1341.0
aF1033.0
aF1022.0
aF627.0
aF869.0
asF179.0
(lp180
F1280.0
aF1293.0
aF1153.0
aF993.0
aF512.0
aF807.0
aF194.0
aF888.0
aF499.0
aF750.0
aF1157.0
aF318.0
aF790.0
aF229.0
aF268.0
aF1017.0
aF777.0
aF524.0
aF75.0
asF180.0
(lp181
F1389.0
aF839.0
aF713.0
aF369.0
aF25.0
aF842.0
aF128.0
aF1118.0
aF1018.0
aF57.0
aF1285.0
aF1026.0
aF318.0
aF1135.0
aF1396.0
aF1380.0
aF31.0
aF1204.0
aF869.0
asF181.0
(lp182
F416.0
aF829.0
aF545.0
aF85.0
aF266.0
aF1267.0
aF1094.0
aF1044.0
aF614.0
aF919.0
aF667.0
aF1152.0
aF325.0
aF811.0
aF467.0
aF819.0
aF991.0
aF524.0
aF894.0
asF182.0
(lp183
F859.0
aF126.0
aF782.0
aF1126.0
aF652.0
aF142.0
aF580.0
aF56.0
aF896.0
aF614.0
aF40.0
aF851.0
aF744.0
aF678.0
aF1220.0
aF282.0
aF523.0
aF1217.0
aF560.0
asF183.0
(lp184
F111.0
aF987.0
aF727.0
aF690.0
aF780.0
aF828.0
aF553.0
aF576.0
aF1200.0
aF534.0
aF225.0
aF932.0
aF213.0
aF281.0
aF1068.0
aF1135.0
aF1053.0
aF1341.0
aF1122.0
asF184.0
(lp185
F622.0
aF28.0
aF727.0
aF1248.0
aF488.0
aF92.0
aF1214.0
aF1093.0
aF814.0
aF844.0
aF1300.0
aF215.0
aF1396.0
aF1028.0
aF198.0
aF562.0
aF31.0
aF841.0
aF1003.0
asF185.0
(lp186
F458.0
aF671.0
aF141.0
aF1207.0
aF1305.0
aF1015.0
aF594.0
aF183.0
aF1195.0
aF1213.0
aF432.0
aF728.0
aF194.0
aF679.0
aF835.0
aF246.0
aF1139.0
aF845.0
aF462.0
asF186.0
(lp187
F504.0
aF1039.0
aF553.0
aF420.0
aF1129.0
aF282.0
aF1093.0
aF382.0
aF682.0
aF997.0
aF490.0
aF1068.0
aF1274.0
aF265.0
aF619.0
aF991.0
aF815.0
aF1003.0
aF1227.0
asF187.0
(lp188
F593.0
aF66.0
aF1266.0
aF388.0
aF1323.0
aF943.0
aF286.0
aF1391.0
aF574.0
aF565.0
aF206.0
aF1163.0
aF434.0
aF430.0
aF246.0
aF648.0
aF57.0
aF1081.0
aF181.0
asF188.0
(lp189
F616.0
aF455.0
aF952.0
aF891.0
aF1159.0
aF1032.0
aF663.0
aF1256.0
aF128.0
aF1143.0
aF1131.0
aF1317.0
aF827.0
aF884.0
aF503.0
aF1049.0
aF554.0
aF429.0
aF1380.0
asF189.0
(lp190
F1110.0
aF1371.0
aF60.0
aF692.0
aF117.0
aF1130.0
aF194.0
aF1043.0
aF464.0
aF1136.0
aF259.0
aF750.0
aF1058.0
aF538.0
aF1250.0
aF982.0
aF841.0
aF462.0
aF627.0
asF190.0
(lp191
F1119.0
aF1391.0
aF1267.0
aF947.0
aF1401.0
aF879.0
aF614.0
aF547.0
aF512.0
aF678.0
aF1187.0
aF760.0
aF1344.0
aF364.0
aF753.0
aF995.0
aF198.0
aF585.0
aF915.0
asF191.0
(lp192
F1350.0
aF596.0
aF893.0
aF896.0
aF971.0
aF1148.0
aF571.0
aF1048.0
aF1214.0
aF1407.0
aF361.0
aF872.0
aF494.0
aF658.0
aF57.0
aF554.0
aF1300.0
aF395.0
aF198.0
asF192.0
(lp193
F200.0
aF44.0
aF1368.0
aF1132.0
aF1374.0
aF896.0
aF1112.0
aF1163.0
aF243.0
aF762.0
aF518.0
aF1322.0
aF391.0
aF1237.0
aF364.0
aF494.0
aF665.0
aF1396.0
aF869.0
asF193.0
(lp194
F593.0
aF704.0
aF1366.0
aF89.0
aF532.0
aF947.0
aF327.0
aF623.0
aF547.0
aF1334.0
aF92.0
aF1407.0
aF753.0
aF794.0
aF318.0
aF1135.0
aF491.0
aF41.0
aF1278.0
asF194.0
(lp195
F1180.0
aF1184.0
aF1374.0
aF63.0
aF659.0
aF444.0
aF612.0
aF1084.0
aF1365.0
aF762.0
aF495.0
aF191.0
aF1083.0
aF549.0
aF1355.0
aF364.0
aF246.0
aF1403.0
aF69.0
asF195.0
(lp196
F164.0
aF416.0
aF362.0
aF8.0
aF1175.0
aF123.0
aF1099.0
aF87.0
aF1400.0
aF1091.0
aF936.0
aF342.0
aF1217.0
aF490.0
aF979.0
aF91.0
aF767.0
aF1116.0
asF196.0
(lp197
F11.0
aF1002.0
aF1039.0
aF38.0
aF499.0
aF1378.0
aF1009.0
aF1223.0
aF1234.0
aF826.0
aF1081.0
aF1302.0
aF1068.0
aF467.0
aF772.0
aF815.0
aF1257.0
aF520.0
asF197.0
(lp198
F81.0
aF460.0
aF493.0
aF1144.0
aF1261.0
aF1348.0
aF1212.0
aF1321.0
aF861.0
aF535.0
aF613.0
aF512.0
aF245.0
aF1344.0
aF559.0
aF1102.0
aF1206.0
aF1121.0
asF198.0
(lp199
F1179.0
aF903.0
aF513.0
aF276.0
aF813.0
aF846.0
aF228.0
aF1214.0
aF1194.0
aF1355.0
aF634.0
aF377.0
aF486.0
aF134.0
aF1152.0
aF467.0
aF130.0
aF234.0
asF199.0
(lp200
F1047.0
aF109.0
aF1111.0
aF642.0
aF514.0
aF1096.0
aF26.0
aF374.0
aF488.0
aF194.0
aF570.0
aF191.0
aF415.0
aF849.0
aF1081.0
aF572.0
aF484.0
aF632.0
asF200.0
(lp201
F471.0
aF1005.0
aF863.0
aF695.0
aF117.0
aF1214.0
aF1406.0
aF1058.0
aF385.0
aF282.0
aF814.0
aF166.0
aF467.0
aF91.0
aF41.0
aF520.0
aF1227.0
aF449.0
asF201.0
(lp202
F411.0
aF15.0
aF988.0
aF292.0
aF86.0
aF158.0
aF298.0
aF514.0
aF282.0
aF382.0
aF902.0
aF995.0
aF198.0
aF1246.0
aF982.0
aF524.0
aF841.0
aF915.0
asF202.0
(lp203
F881.0
aF44.0
aF132.0
aF266.0
aF1096.0
aF359.0
aF535.0
aF245.0
aF1118.0
aF415.0
aF1223.0
aF968.0
aF1390.0
aF1217.0
aF318.0
aF1314.0
aF261.0
aF41.0
asF203.0
(lp204
F207.0
aF1069.0
aF216.0
aF971.0
aF614.0
aF276.0
aF728.0
aF194.0
aF751.0
aF228.0
aF760.0
aF1344.0
aF597.0
aF682.0
aF399.0
aF1103.0
aF484.0
aF34.0
asF204.0
(lp205
F1047.0
aF411.0
aF1256.0
aF695.0
aF117.0
aF712.0
aF547.0
aF512.0
aF464.0
aF1344.0
aF1355.0
aF753.0
aF848.0
aF419.0
aF198.0
aF41.0
aF1278.0
aF869.0
asF205.0
(lp206
F552.0
aF304.0
aF1241.0
aF174.0
aF671.0
aF704.0
aF713.0
aF843.0
aF922.0
aF1212.0
aF879.0
aF209.0
aF162.0
aF547.0
aF601.0
aF94.0
aF1396.0
aF1246.0
asF206.0
(lp207
F755.0
aF476.0
aF606.0
aF987.0
aF676.0
aF475.0
aF861.0
aF547.0
aF667.0
aF1344.0
aF256.0
aF1369.0
aF611.0
aF920.0
aF198.0
aF832.0
aF841.0
aF186.0
asF207.0
(lp208
F763.0
aF431.0
aF28.0
aF903.0
aF1163.0
aF512.0
aF495.0
aF1118.0
aF178.0
aF942.0
aF906.0
aF1403.0
aF490.0
aF91.0
aF1272.0
aF1121.0
aF329.0
aF915.0
asF208.0
(lp209
F852.0
aF118.0
aF980.0
aF1394.0
aF695.0
aF631.0
aF812.0
aF188.0
aF246.0
aF957.0
aF437.0
aF844.0
aF811.0
aF399.0
aF1302.0
aF1103.0
aF242.0
asF209.0
(lp210
F492.0
aF820.0
aF730.0
aF300.0
aF1240.0
aF590.0
aF954.0
aF745.0
aF209.0
aF1271.0
aF706.0
aF872.0
aF1019.0
aF256.0
aF1235.0
aF1078.0
aF714.0
asF210.0
(lp211
F122.0
aF629.0
aF545.0
aF1293.0
aF1256.0
aF853.0
aF291.0
aF877.0
aF1291.0
aF1172.0
aF98.0
aF488.0
aF1344.0
aF1223.0
aF523.0
aF811.0
aF215.0
asF211.0
(lp212
F401.0
aF416.0
aF286.0
aF65.0
aF988.0
aF127.0
aF692.0
aF1256.0
aF695.0
aF667.0
aF415.0
aF870.0
aF682.0
aF0.0
aF1224.0
aF1081.0
aF717.0
asF212.0
(lp213
F1180.0
aF507.0
aF441.0
aF447.0
aF533.0
aF188.0
aF1195.0
aF1099.0
aF213.0
aF761.0
aF1250.0
aF1300.0
aF674.0
aF675.0
aF287.0
aF520.0
aF1038.0
asF213.0
(lp214
F1391.0
aF249.0
aF140.0
aF1171.0
aF131.0
aF580.0
aF879.0
aF695.0
aF204.0
aF861.0
aF649.0
aF315.0
aF22.0
aF1234.0
aF352.0
aF1314.0
aF1206.0
asF214.0
(lp215
F1149.0
aF1170.0
aF1060.0
aF30.0
aF1261.0
aF998.0
aF464.0
aF760.0
aF415.0
aF163.0
aF559.0
aF1367.0
aF484.0
aF959.0
aF1287.0
aF894.0
aF869.0
asF215.0
(lp216
F1222.0
aF416.0
aF1047.0
aF317.0
aF1065.0
aF904.0
aF695.0
aF176.0
aF547.0
aF288.0
aF824.0
aF1224.0
aF1081.0
aF956.0
aF771.0
aF198.0
aF31.0
asF216.0
(lp217
F1184.0
aF28.0
aF535.0
aF547.0
aF488.0
aF191.0
aF464.0
aF760.0
aF835.0
aF1125.0
aF753.0
aF582.0
aF318.0
aF1219.0
aF1081.0
aF467.0
aF977.0
asF217.0
(lp218
F3.0
aF1002.0
aF923.0
aF712.0
aF993.0
aF728.0
aF495.0
aF92.0
aF566.0
aF1344.0
aF246.0
aF282.0
aF1274.0
aF815.0
aF777.0
aF1227.0
asF218.0
(lp219
F840.0
aF876.0
aF266.0
aF1014.0
aF379.0
aF642.0
aF302.0
aF950.0
aF427.0
aF597.0
aF480.0
aF1023.0
aF611.0
aF287.0
aF195.0
aF173.0
asF219.0
(lp220
F718.0
aF847.0
aF1310.0
aF1171.0
aF1212.0
aF1363.0
aF601.0
aF757.0
aF1407.0
aF385.0
aF936.0
aF215.0
aF946.0
aF1206.0
aF1121.0
aF449.0
asF220.0
(lp221
F11.0
aF1045.0
aF863.0
aF846.0
aF37.0
aF6.0
aF259.0
aF301.0
aF957.0
aF1157.0
aF582.0
aF14.0
aF153.0
aF1081.0
aF675.0
aF198.0
asF221.0
(lp222
F389.0
aF370.0
aF857.0
aF1394.0
aF1352.0
aF697.0
aF453.0
aF1237.0
aF276.0
aF900.0
aF1355.0
aF703.0
aF682.0
aF582.0
aF428.0
aF354.0
asF222.0
(lp223
F132.0
aF504.0
aF1304.0
aF1311.0
aF1153.0
aF1397.0
aF227.0
aF728.0
aF499.0
aF898.0
aF1300.0
aF1202.0
aF248.0
aF977.0
aF1341.0
aF913.0
asF223.0
(lp224
F718.0
aF493.0
aF713.0
aF402.0
aF302.0
aF309.0
aF1118.0
aF48.0
aF1407.0
aF1288.0
aF415.0
aF634.0
aF703.0
aF1217.0
aF1224.0
aF77.0
asF224.0
(lp225
F545.0
aF127.0
aF1163.0
aF993.0
aF846.0
aF1161.0
aF494.0
aF1238.0
aF523.0
aF325.0
aF1300.0
aF0.0
aF895.0
aF977.0
aF781.0
aF741.0
asF225.0
(lp226
F64.0
aF343.0
aF1269.0
aF988.0
aF142.0
aF169.0
aF1377.0
aF778.0
aF1118.0
aF6.0
aF1187.0
aF634.0
aF1376.0
aF75.0
aF181.0
aF869.0
asF226.0
(lp227
F830.0
aF300.0
aF1310.0
aF1063.0
aF590.0
aF1394.0
aF488.0
aF301.0
aF385.0
aF814.0
aF936.0
aF1146.0
aF1376.0
aF559.0
aF1052.0
aF1284.0
asF227.0
(lp228
F821.0
aF388.0
aF305.0
aF1071.0
aF1365.0
aF535.0
aF762.0
aF984.0
aF315.0
aF364.0
aF814.0
aF1390.0
aF838.0
aF186.0
aF1259.0
aF915.0
asF228.0
(lp229
F830.0
aF1209.0
aF718.0
aF927.0
aF131.0
aF346.0
aF204.0
aF309.0
aF1407.0
aF22.0
aF672.0
aF1376.0
aF946.0
aF551.0
aF1206.0
aF31.0
asF229.0
(lp230
F285.0
aF497.0
aF317.0
aF1177.0
aF1094.0
aF1212.0
aF1237.0
aF191.0
aF1214.0
aF1187.0
aF113.0
aF1135.0
aF1206.0
aF1298.0
aF329.0
aF478.0
asF230.0
(lp231
F735.0
aF739.0
aF510.0
aF988.0
aF380.0
aF965.0
aF191.0
aF252.0
aF213.0
aF1187.0
aF334.0
aF352.0
aF1206.0
aF918.0
aF75.0
aF915.0
asF231.0
(lp232
F450.0
aF1350.0
aF30.0
aF988.0
aF1201.0
aF127.0
aF535.0
aF1048.0
aF6.0
aF872.0
aF398.0
aF301.0
aF1357.0
aF675.0
aF229.0
aF1108.0
asF232.0
(lp233
F401.0
aF105.0
aF1263.0
aF1391.0
aF988.0
aF327.0
aF514.0
aF614.0
aF434.0
aF374.0
aF194.0
aF1082.0
aF361.0
aF41.0
aF173.0
aF632.0
asF233.0
(lp234
F1178.0
aF1060.0
aF1190.0
aF136.0
aF652.0
aF850.0
aF810.0
aF514.0
aF757.0
aF1214.0
aF1390.0
aF844.0
aF166.0
aF1135.0
aF551.0
aF69.0
asF234.0
(lp235
F303.0
aF73.0
aF1069.0
aF1373.0
aF633.0
aF642.0
aF612.0
aF514.0
aF1096.0
aF710.0
aF744.0
aF1390.0
aF963.0
aF352.0
aF1103.0
aF196.0
asF235.0
(lp236
F847.0
aF803.0
aF925.0
aF1130.0
aF231.0
aF993.0
aF534.0
aF888.0
aF634.0
aF605.0
aF902.0
aF1387.0
aF1028.0
aF1037.0
aF31.0
aF1158.0
asF236.0
(lp237
F545.0
aF1115.0
aF28.0
aF254.0
aF1212.0
aF1334.0
aF678.0
aF361.0
aF703.0
aF1001.0
aF609.0
aF794.0
aF844.0
aF147.0
aF31.0
asF237.0
(lp238
F615.0
aF606.0
aF803.0
aF690.0
aF981.0
aF194.0
aF785.0
aF260.0
aF674.0
aF811.0
aF1396.0
aF1251.0
aF772.0
aF31.0
aF841.0
asF238.0
(lp239
F1294.0
aF782.0
aF709.0
aF847.0
aF452.0
aF828.0
aF535.0
aF1296.0
aF361.0
aF427.0
aF1107.0
aF1217.0
aF551.0
aF767.0
aF41.0
asF239.0
(lp240
F810.0
aF380.0
aF444.0
aF1084.0
aF535.0
aF1400.0
aF488.0
aF445.0
aF1187.0
aF1217.0
aF844.0
aF1367.0
aF585.0
aF1278.0
aF915.0
asF240.0
(lp241
F1382.0
aF1198.0
aF266.0
aF206.0
aF124.0
aF475.0
aF384.0
aF488.0
aF1407.0
aF835.0
aF282.0
aF523.0
aF790.0
aF1135.0
aF915.0
asF241.0
(lp242
F1066.0
aF1047.0
aF709.0
aF11.0
aF127.0
aF436.0
aF1015.0
aF1392.0
aF993.0
aF365.0
aF201.0
aF198.0
aF1230.0
aF524.0
aF1257.0
asF242.0
(lp243
F673.0
aF993.0
aF495.0
aF1327.0
aF1325.0
aF750.0
aF1238.0
aF582.0
aF655.0
aF1242.0
aF319.0
aF428.0
aF977.0
aF338.0
aF107.0
asF243.0
(lp244
F709.0
aF1374.0
aF1151.0
aF641.0
aF225.0
aF932.0
aF942.0
aF995.0
aF1017.0
aF125.0
aF265.0
aF1341.0
aF991.0
aF357.0
aF196.0
asF244.0
(lp245
F988.0
aF1394.0
aF778.0
aF1392.0
aF950.0
aF1369.0
aF115.0
aF1234.0
aF1090.0
aF14.0
aF469.0
aF467.0
aF1257.0
aF1116.0
asF245.0
(lp246
F1047.0
aF109.0
aF1263.0
aF521.0
aF642.0
aF177.0
aF194.0
aF570.0
aF191.0
aF835.0
aF1081.0
aF287.0
aF484.0
aF632.0
asF246.0
(lp247
F289.0
aF843.0
aF216.0
aF1002.0
aF955.0
aF123.0
aF762.0
aF728.0
aF724.0
aF835.0
aF246.0
aF405.0
aF822.0
aF915.0
asF247.0
(lp248
F1047.0
aF292.0
aF1394.0
aF438.0
aF1296.0
aF6.0
aF427.0
aF301.0
aF703.0
aF325.0
aF399.0
aF1230.0
aF500.0
aF234.0
asF248.0
(lp249
F73.0
aF573.0
aF1176.0
aF312.0
aF188.0
aF1296.0
aF225.0
aF464.0
aF750.0
aF595.0
aF753.0
aF1068.0
aF299.0
aF1227.0
asF249.0
(lp250
F446.0
aF929.0
aF1293.0
aF988.0
aF1094.0
aF1366.0
aF292.0
aF583.0
aF547.0
aF1200.0
aF757.0
aF549.0
aF688.0
aF69.0
asF250.0
(lp251
F1180.0
aF1195.0
aF816.0
aF1027.0
aF512.0
aF1407.0
aF558.0
aF682.0
aF1300.0
aF785.0
aF551.0
aF675.0
aF264.0
aF181.0
asF251.0
(lp252
F1134.0
aF1374.0
aF1094.0
aF893.0
aF1163.0
aF667.0
aF1152.0
aF753.0
aF325.0
aF467.0
aF248.0
aF1329.0
aF198.0
aF433.0
asF252.0
(lp253
F1165.0
aF718.0
aF1315.0
aF82.0
aF543.0
aF396.0
aF477.0
aF1009.0
aF1288.0
aF672.0
aF293.0
aF1319.0
aF1329.0
aF1121.0
asF253.0
(lp254
F285.0
aF1222.0
aF266.0
aF656.0
aF133.0
aF1175.0
aF861.0
aF365.0
aF191.0
aF760.0
aF1051.0
aF817.0
aF186.0
aF155.0
asF254.0
(lp255
F64.0
aF67.0
aF782.0
aF709.0
aF311.0
aF1201.0
aF284.0
aF1175.0
aF677.0
aF464.0
aF634.0
aF185.0
aF838.0
aF367.0
asF255.0
(lp256
F1002.0
aF123.0
aF547.0
aF807.0
aF420.0
aF1043.0
aF1327.0
aF282.0
aF936.0
aF1001.0
aF382.0
aF467.0
aF23.0
aF1257.0
asF256.0
(lp257
F64.0
aF616.0
aF73.0
aF698.0
aF1065.0
aF488.0
aF1187.0
aF760.0
aF415.0
aF1224.0
aF1264.0
aF675.0
aF772.0
aF585.0
asF257.0
(lp258
F66.0
aF81.0
aF472.0
aF1401.0
aF1007.0
aF787.0
aF488.0
aF92.0
aF1091.0
aF1234.0
aF467.0
aF1135.0
aF832.0
aF75.0
asF258.0
(lp259
F629.0
aF1310.0
aF574.0
aF1267.0
aF15.0
aF237.0
aF1375.0
aF601.0
aF494.0
aF1206.0
aF491.0
aF772.0
aF1052.0
aF76.0
asF259.0
(lp260
F718.0
aF1170.0
aF616.0
aF1267.0
aF131.0
aF947.0
aF1349.0
aF678.0
aF1187.0
aF1407.0
aF415.0
aF1403.0
aF632.0
aF1278.0
asF260.0
(lp261
F847.0
aF1060.0
aF927.0
aF266.0
aF903.0
aF512.0
aF1339.0
aF1409.0
aF398.0
aF1135.0
aF551.0
aF248.0
aF31.0
aF341.0
asF261.0
(lp262
F709.0
aF671.0
aF1397.0
aF778.0
aF613.0
aF512.0
aF144.0
aF844.0
aF382.0
aF682.0
aF1300.0
aF166.0
aF31.0
aF1109.0
asF262.0
(lp263
F66.0
aF615.0
aF28.0
aF908.0
aF426.0
aF1156.0
aF276.0
aF597.0
aF920.0
aF1103.0
aF195.0
aF31.0
aF186.0
asF263.0
(lp264
F881.0
aF131.0
aF1373.0
aF404.0
aF514.0
aF535.0
aF1128.0
aF415.0
aF871.0
aF1157.0
aF946.0
aF551.0
aF632.0
asF264.0
(lp265
F782.0
aF414.0
aF863.0
aF1039.0
aF512.0
aF488.0
aF420.0
aF1067.0
aF794.0
aF1090.0
aF318.0
aF826.0
aF572.0
asF265.0
(lp266
F476.0
aF1114.0
aF622.0
aF28.0
aF1176.0
aF556.0
aF514.0
aF128.0
aF811.0
aF1081.0
aF1135.0
aF419.0
aF223.0
asF266.0
(lp267
F587.0
aF232.0
aF1111.0
aF276.0
aF645.0
aF597.0
aF769.0
aF609.0
aF1157.0
aF69.0
aF772.0
aF354.0
aF1035.0
asF267.0
(lp268
F174.0
aF436.0
aF1397.0
aF1007.0
aF828.0
aF420.0
aF750.0
aF558.0
aF1152.0
aF902.0
aF1300.0
aF811.0
aF1257.0
asF268.0
(lp269
F1269.0
aF436.0
aF8.0
aF514.0
aF865.0
aF697.0
aF984.0
aF728.0
aF888.0
aF1369.0
aF1355.0
aF144.0
aF1090.0
asF269.0
(lp270
F604.0
aF468.0
aF687.0
aF697.0
aF1399.0
aF768.0
aF92.0
aF1223.0
aF609.0
aF946.0
aF798.0
aF478.0
aF691.0
asF270.0
(lp271
F132.0
aF381.0
aF207.0
aF1201.0
aF779.0
aF861.0
aF846.0
aF377.0
aF1223.0
aF163.0
aF484.0
aF173.0
aF915.0
asF271.0
(lp272
F545.0
aF85.0
aF988.0
aF697.0
aF365.0
aF1344.0
aF1058.0
aF870.0
aF1369.0
aF484.0
aF991.0
aF31.0
aF894.0
asF272.0
(lp273
F1180.0
aF106.0
aF1207.0
aF780.0
aF697.0
aF1357.0
aF1297.0
aF682.0
aF399.0
aF1202.0
aF467.0
aF1017.0
aF524.0
asF273.0
(lp274
F32.0
aF7.0
aF251.0
aF266.0
aF24.0
aF224.0
aF1021.0
aF1349.0
aF359.0
aF861.0
aF246.0
aF134.0
aF31.0
asF274.0
(lp275
F1324.0
aF1069.0
aF947.0
aF812.0
aF1044.0
aF667.0
aF1344.0
aF361.0
aF640.0
aF1217.0
aF198.0
aF524.0
aF915.0
asF275.0
(lp276
F1047.0
aF635.0
aF921.0
aF488.0
aF724.0
aF835.0
aF246.0
aF1223.0
aF597.0
aF91.0
aF463.0
aF632.0
aF1278.0
asF276.0
(lp277
F927.0
aF65.0
aF604.0
aF1373.0
aF1225.0
aF392.0
aF374.0
aF1355.0
aF356.0
aF909.0
aF560.0
aF551.0
aF130.0
asF277.0
(lp278
F304.0
aF773.0
aF508.0
aF863.0
aF917.0
aF757.0
aF213.0
aF706.0
aF936.0
aF572.0
aF675.0
aF491.0
aF869.0
asF278.0
(lp279
F476.0
aF1047.0
aF545.0
aF994.0
aF692.0
aF1394.0
aF1212.0
aF919.0
aF427.0
aF385.0
aF946.0
aF161.0
aF196.0
asF279.0
(lp280
F1267.0
aF1366.0
aF189.0
aF971.0
aF177.0
aF306.0
aF92.0
aF1344.0
aF538.0
aF1193.0
aF977.0
aF841.0
aF845.0
asF280.0
(lp281
F466.0
aF718.0
aF1391.0
aF142.0
aF1112.0
aF861.0
aF245.0
aF494.0
aF415.0
aF672.0
aF665.0
aF1121.0
aF31.0
asF281.0
(lp282
F1074.0
aF118.0
aF521.0
aF158.0
aF1153.0
aF452.0
aF547.0
aF1223.0
aF325.0
aF1068.0
aF198.0
aF815.0
aF299.0
asF282.0
(lp283
F493.0
aF604.0
aF1267.0
aF633.0
aF1363.0
aF1288.0
aF870.0
aF946.0
aF1206.0
aF91.0
aF959.0
aF181.0
aF915.0
asF283.0
(lp284
F709.0
aF109.0
aF1225.0
aF194.0
aF1194.0
aF835.0
aF282.0
aF597.0
aF382.0
aF1196.0
aF161.0
aF772.0
aF23.0
asF284.0
(lp285
F11.0
aF28.0
aF690.0
aF123.0
aF1237.0
aF1378.0
aF1383.0
aF826.0
aF1081.0
aF1302.0
aF463.0
aF632.0
asF285.0
(lp286
F1228.0
aF1209.0
aF1266.0
aF718.0
aF616.0
aF1310.0
aF1317.0
aF178.0
aF1342.0
aF672.0
aF77.0
aF31.0
asF286.0
(lp287
F1055.0
aF847.0
aF207.0
aF211.0
aF779.0
aF178.0
aF494.0
aF415.0
aF385.0
aF1217.0
aF528.0
aF1121.0
asF287.0
(lp288
F73.0
aF510.0
aF987.0
aF947.0
aF327.0
aF230.0
aF695.0
aF1327.0
aF870.0
aF559.0
aF1206.0
aF186.0
asF288.0
(lp289
F799.0
aF160.0
aF732.0
aF760.0
aF288.0
aF986.0
aF1297.0
aF382.0
aF1300.0
aF1242.0
aF125.0
aF31.0
asF289.0
(lp290
F81.0
aF303.0
aF742.0
aF568.0
aF695.0
aF488.0
aF495.0
aF1187.0
aF724.0
aF494.0
aF1223.0
aF915.0
asF290.0
(lp291
F1252.0
aF773.0
aF98.0
aF712.0
aF547.0
aF316.0
aF21.0
aF1217.0
aF490.0
aF94.0
aF1396.0
aF41.0
asF291.0
(lp292
F795.0
aF1191.0
aF711.0
aF724.0
aF494.0
aF844.0
aF559.0
aF215.0
aF1314.0
aF1206.0
aF798.0
aF1121.0
asF292.0
(lp293
F1047.0
aF493.0
aF381.0
aF65.0
aF1112.0
aF1392.0
aF488.0
aF570.0
aF724.0
aF246.0
aF838.0
aF675.0
asF293.0
(lp294
F1382.0
aF1134.0
aF616.0
aF330.0
aF1371.0
aF129.0
aF750.0
aF1223.0
aF1312.0
aF198.0
aF1255.0
aF841.0
asF294.0
(lp295
F1180.0
aF1391.0
aF752.0
aF488.0
aF678.0
aF415.0
aF871.0
aF1090.0
aF844.0
aF528.0
aF215.0
aF1206.0
asF295.0
(lp296
F1060.0
aF136.0
aF633.0
aF353.0
aF209.0
aF117.0
aF1007.0
aF757.0
aF706.0
aF549.0
aF963.0
aF75.0
asF296.0
(lp297
F328.0
aF545.0
aF313.0
aF842.0
aF464.0
aF1214.0
aF1355.0
aF325.0
aF640.0
aF467.0
aF484.0
aF845.0
asF297.0
(lp298
F32.0
aF510.0
aF302.0
aF327.0
aF732.0
aF1118.0
aF464.0
aF352.0
aF957.0
aF490.0
aF71.0
aF31.0
asF298.0
(lp299
F573.0
aF1397.0
aF1143.0
aF613.0
aF316.0
aF361.0
aF814.0
aF870.0
aF91.0
aF264.0
aF41.0
aF1204.0
asF299.0
(lp300
F460.0
aF1336.0
aF1047.0
aF850.0
aF327.0
aF51.0
aF757.0
aF228.0
aF942.0
aF703.0
aF144.0
aF75.0
asF300.0
(lp301
F876.0
aF216.0
aF1205.0
aF903.0
aF1340.0
aF1338.0
aF646.0
aF150.0
aF364.0
aF753.0
aF1135.0
aF358.0
asF301.0
(lp302
F1047.0
aF1263.0
aF1374.0
aF1007.0
aF861.0
aF194.0
aF191.0
aF464.0
aF1367.0
aF585.0
aF632.0
aF473.0
asF302.0
(lp303
F124.0
aF610.0
aF699.0
aF861.0
aF712.0
aF846.0
aF191.0
aF1302.0
aF551.0
aF848.0
aF578.0
aF186.0
asF303.0
(lp304
F64.0
aF716.0
aF450.0
aF782.0
aF375.0
aF510.0
aF530.0
aF546.0
aF127.0
aF294.0
aF501.0
aF1224.0
asF304.0
(lp305
F904.0
aF695.0
aF117.0
aF978.0
aF1355.0
aF1009.0
aF342.0
aF467.0
aF977.0
aF1226.0
aF1204.0
aF397.0
asF305.0
(lp306
F718.0
aF891.0
aF1389.0
aF745.0
aF162.0
aF827.0
aF385.0
aF672.0
aF1135.0
aF946.0
aF1121.0
aF869.0
asF306.0
(lp307
F1216.0
aF1248.0
aF762.0
aF993.0
aF1243.0
aF1001.0
aF382.0
aF1068.0
aF265.0
aF991.0
aF1230.0
aF1257.0
asF307.0
(lp308
F493.0
aF988.0
aF904.0
aF971.0
aF851.0
aF804.0
aF1058.0
aF119.0
aF325.0
aF467.0
aF155.0
aF869.0
asF308.0
(lp309
F1210.0
aF485.0
aF266.0
aF787.0
aF191.0
aF706.0
aF102.0
aF22.0
aF1019.0
aF946.0
aF280.0
aF578.0
asF309.0
(lp310
F32.0
aF1178.0
aF1209.0
aF1266.0
aF401.0
aF1113.0
aF493.0
aF355.0
aF353.0
aF153.0
aF798.0
asF310.0
(lp311
F575.0
aF1153.0
aF712.0
aF495.0
aF932.0
aF115.0
aF902.0
aF1202.0
aF69.0
aF959.0
aF524.0
asF311.0
(lp312
F742.0
aF28.0
aF1392.0
aF384.0
aF728.0
aF902.0
aF1300.0
aF1081.0
aF280.0
aF268.0
aF287.0
asF312.0
(lp313
F416.0
aF514.0
aF710.0
aF1282.0
aF724.0
aF415.0
aF1302.0
aF675.0
aF1028.0
aF223.0
aF31.0
asF313.0
(lp314
F739.0
aF269.0
aF239.0
aF245.0
aF1407.0
aF1217.0
aF318.0
aF94.0
aF195.0
aF1121.0
aF31.0
asF314.0
(lp315
F1228.0
aF773.0
aF493.0
aF1142.0
aF454.0
aF1212.0
aF117.0
aF495.0
aF344.0
aF675.0
aF1052.0
asF315.0
(lp316
F485.0
aF1074.0
aF1267.0
aF169.0
aF626.0
aF230.0
aF787.0
aF1237.0
aF43.0
aF246.0
aF1285.0
asF316.0
(lp317
F302.0
aF54.0
aF1339.0
aF703.0
aF340.0
aF147.0
aF1300.0
aF848.0
aF395.0
aF481.0
aF1259.0
asF317.0
(lp318
F476.0
aF754.0
aF127.0
aF727.0
aF1388.0
aF123.0
aF932.0
aF667.0
aF1325.0
aF582.0
aF1122.0
asF318.0
(lp319
F2.0
aF671.0
aF389.0
aF1256.0
aF518.0
aF364.0
aF356.0
aF715.0
aF354.0
aF1284.0
aF212.0
asF319.0
(lp320
F929.0
aF64.0
aF1360.0
aF616.0
aF249.0
aF899.0
aF846.0
aF92.0
aF385.0
aF1199.0
aF1078.0
asF320.0
(lp321
F1134.0
aF604.0
aF1293.0
aF900.0
aF409.0
aF6.0
aF321.0
aF1152.0
aF668.0
aF329.0
aF371.0
asF321.0
(lp322
F1165.0
aF485.0
aF694.0
aF1021.0
aF1009.0
aF1224.0
aF946.0
aF1284.0
aF186.0
aF1227.0
aF714.0
asF322.0
(lp323
F285.0
aF739.0
aF493.0
aF568.0
aF708.0
aF237.0
aF302.0
aF572.0
aF551.0
aF190.0
aF155.0
asF323.0
(lp324
F330.0
aF709.0
aF1374.0
aF1335.0
aF302.0
aF993.0
aF1237.0
aF115.0
aF537.0
aF161.0
aF354.0
asF324.0
(lp325
F466.0
aF896.0
aF1112.0
aF1163.0
aF695.0
aF123.0
aF1213.0
aF488.0
aF191.0
aF559.0
aF915.0
asF325.0
(lp326
F1002.0
aF1254.0
aF418.0
aF712.0
aF965.0
aF1339.0
aF246.0
aF1223.0
aF1403.0
aF490.0
aF215.0
asF326.0
(lp327
F416.0
aF953.0
aF1069.0
aF865.0
aF566.0
aF1357.0
aF282.0
aF325.0
aF287.0
aF91.0
aF524.0
asF327.0
(lp328
F1262.0
aF459.0
aF577.0
aF1163.0
aF1291.0
aF464.0
aF1327.0
aF760.0
aF440.0
aF703.0
aF632.0
asF328.0
(lp329
F73.0
aF277.0
aF1153.0
aF219.0
aF719.0
aF761.0
aF1379.0
aF538.0
aF1157.0
aF902.0
aF197.0
asF329.0
(lp330
F81.0
aF850.0
aF947.0
aF695.0
aF204.0
aF294.0
aF703.0
aF675.0
aF91.0
aF41.0
aF1278.0
asF330.0
(lp331
F496.0
aF882.0
aF141.0
aF1148.0
aF432.0
aF724.0
aF990.0
aF1223.0
aF325.0
aF986.0
aF1123.0
asF331.0
(lp332
F266.0
aF56.0
aF762.0
aF1339.0
aF228.0
aF48.0
aF1285.0
aF91.0
aF772.0
aF1116.0
aF632.0
asF332.0
(lp333
F416.0
aF545.0
aF475.0
aF488.0
aF315.0
aF213.0
aF724.0
aF849.0
aF870.0
aF382.0
aF632.0
asF333.0
(lp334
F28.0
aF1148.0
aF1151.0
aF618.0
aF835.0
aF1152.0
aF902.0
aF1387.0
aF685.0
aF845.0
asF334.0
(lp335
F622.0
aF780.0
aF993.0
aF191.0
aF288.0
aF282.0
aF523.0
aF382.0
aF1300.0
aF198.0
asF335.0
(lp336
F380.0
aF695.0
aF123.0
aF861.0
aF488.0
aF942.0
aF364.0
aF675.0
aF181.0
aF186.0
asF336.0
(lp337
F1324.0
aF616.0
aF709.0
aF1060.0
aF1333.0
aF1256.0
aF1157.0
aF963.0
aF196.0
aF449.0
asF337.0
(lp338
F1286.0
aF1055.0
aF1050.0
aF15.0
aF362.0
aF211.0
aF198.0
aF41.0
aF885.0
aF155.0
asF338.0
(lp339
F886.0
aF81.0
aF67.0
aF1320.0
aF294.0
aF364.0
aF415.0
aF1403.0
aF185.0
aF798.0
asF339.0
(lp340
F1286.0
aF127.0
aF532.0
aF751.0
aF464.0
aF1407.0
aF523.0
aF528.0
aF318.0
aF463.0
asF340.0
(lp341
F509.0
aF191.0
aF751.0
aF844.0
aF467.0
aF675.0
aF319.0
aF181.0
aF31.0
aF449.0
asF341.0
(lp342
F881.0
aF563.0
aF698.0
aF974.0
aF33.0
aF1364.0
aF865.0
aF1392.0
aF914.0
aF354.0
asF342.0
(lp343
F1283.0
aF940.0
aF533.0
aF464.0
aF1056.0
aF651.0
aF715.0
aF287.0
aF912.0
aF1035.0
asF343.0
(lp344
F782.0
aF577.0
aF1002.0
aF276.0
aF365.0
aF897.0
aF247.0
aF826.0
aF1204.0
aF894.0
asF344.0
(lp345
F1286.0
aF615.0
aF1119.0
aF742.0
aF1248.0
aF276.0
aF724.0
aF968.0
aF198.0
aF196.0
asF345.0
(lp346
F709.0
aF839.0
aF729.0
aF254.0
aF745.0
aF1168.0
aF1322.0
aF1213.0
aF1081.0
aF1024.0
asF346.0
(lp347
F847.0
aF1354.0
aF1007.0
aF768.0
aF361.0
aF634.0
aF824.0
aF1135.0
aF491.0
aF1020.0
asF347.0
(lp348
F983.0
aF877.0
aF647.0
aF491.0
aF198.0
aF832.0
aF338.0
aF915.0
aF449.0
aF894.0
asF348.0
(lp349
F401.0
aF546.0
aF564.0
aF988.0
aF464.0
aF906.0
aF1376.0
aF1028.0
aF329.0
aF869.0
asF349.0
(lp350
F471.0
aF545.0
aF1216.0
aF1148.0
aF635.0
aF762.0
aF1328.0
aF1051.0
aF946.0
aF841.0
asF350.0
(lp351
F1360.0
aF994.0
aF745.0
aF687.0
aF795.0
aF760.0
aF22.0
aF1390.0
aF1101.0
aF77.0
asF351.0
(lp352
F67.0
aF612.0
aF1084.0
aF426.0
aF1128.0
aF1234.0
aF70.0
aF870.0
aF585.0
aF181.0
asF352.0
(lp353
F1209.0
aF782.0
aF1310.0
aF927.0
aF621.0
aF15.0
aF884.0
aF92.0
aF1367.0
aF1206.0
asF353.0
(lp354
F1391.0
aF177.0
aF723.0
aF191.0
aF760.0
aF494.0
aF70.0
aF57.0
aF815.0
aF585.0
asF354.0
(lp355
F431.0
aF274.0
aF993.0
aF1409.0
aF102.0
aF301.0
aF1234.0
aF14.0
aF248.0
aF771.0
asF355.0
(lp356
F552.0
aF831.0
aF722.0
aF879.0
aF1167.0
aF764.0
aF649.0
aF724.0
aF1407.0
aF672.0
asF356.0
(lp357
F401.0
aF718.0
aF483.0
aF1212.0
aF903.0
aF123.0
aF488.0
aF884.0
aF650.0
aF772.0
asF357.0
(lp358
F447.0
aF1148.0
aF178.0
aF688.0
aF1152.0
aF1297.0
aF920.0
aF331.0
aF948.0
aF880.0
asF358.0
(lp359
F220.0
aF2.0
aF1374.0
aF1254.0
aF993.0
aF194.0
aF1051.0
aF597.0
aF1224.0
aF675.0
asF359.0
(lp360
F1382.0
aF1374.0
aF131.0
aF1366.0
aF774.0
aF488.0
aF744.0
aF724.0
aF611.0
aF465.0
asF360.0
(lp361
F1294.0
aF666.0
aF742.0
aF751.0
aF1214.0
aF21.0
aF794.0
aF582.0
aF1246.0
aF1121.0
asF361.0
(lp362
F1002.0
aF254.0
aF227.0
aF646.0
aF751.0
aF316.0
aF22.0
aF1358.0
aF1121.0
aF885.0
asF362.0
(lp363
F176.0
aF645.0
aF213.0
aF382.0
aF1300.0
aF1189.0
aF560.0
aF1206.0
aF120.0
aF1341.0
asF363.0
(lp364
F203.0
aF1142.0
aF802.0
aF117.0
aF501.0
aF783.0
aF683.0
aF1161.0
aF22.0
aF1033.0
asF364.0
(lp365
F1134.0
aF1075.0
aF225.0
aF900.0
aF191.0
aF751.0
aF199.0
aF870.0
aF841.0
aF845.0
asF365.0
(lp366
F404.0
aF618.0
aF512.0
aF760.0
aF178.0
aF415.0
aF377.0
aF1367.0
aF675.0
aF1279.0
asF366.0
(lp367
F328.0
aF919.0
aF512.0
aF382.0
aF335.0
aF1224.0
aF268.0
aF848.0
aF841.0
aF915.0
asF367.0
(lp368
F28.0
aF974.0
aF612.0
aF194.0
aF1369.0
aF1194.0
aF318.0
aF1081.0
aF215.0
aF585.0
asF368.0
(lp369
F64.0
aF1209.0
aF336.0
aF708.0
aF302.0
aF1140.0
aF1397.0
aF872.0
aF909.0
aF1369.0
asF369.0
(lp370
F633.0
aF1327.0
aF814.0
aF1358.0
aF241.0
aF1206.0
aF1270.0
aF491.0
aF1033.0
aF130.0
asF370.0
(lp371
F1324.0
aF1015.0
aF535.0
aF728.0
aF288.0
aF849.0
aF88.0
aF342.0
aF421.0
aF894.0
asF371.0
(lp372
F739.0
aF709.0
aF1374.0
aF828.0
aF92.0
aF1344.0
aF538.0
aF920.0
aF560.0
aF0.0
asF372.0
(lp373
F44.0
aF839.0
aF193.0
aF224.0
aF176.0
aF1048.0
aF325.0
aF838.0
aF195.0
aF433.0
asF373.0
(lp374
F200.0
aF705.0
aF555.0
aF1163.0
aF762.0
aF712.0
aF488.0
aF495.0
aF246.0
aF1135.0
asF374.0
(lp375
F1113.0
aF1320.0
aF695.0
aF672.0
aF1145.0
aF31.0
aF1078.0
aF915.0
aF341.0
asF375.0
(lp376
F754.0
aF204.0
aF513.0
aF1173.0
aF364.0
aF467.0
aF1135.0
aF977.0
aF746.0
asF376.0
(lp377
F1031.0
aF723.0
aF804.0
aF1409.0
aF1102.0
aF91.0
aF71.0
aF69.0
aF1346.0
asF377.0
(lp378
F448.0
aF514.0
aF1291.0
aF488.0
aF804.0
aF1125.0
aF1107.0
aF523.0
aF1157.0
asF378.0
(lp379
F132.0
aF681.0
aF1337.0
aF418.0
aF177.0
aF227.0
aF488.0
aF1376.0
aF484.0
asF379.0
(lp380
F553.0
aF993.0
aF900.0
aF1067.0
aF241.0
aF469.0
aF790.0
aF602.0
aF1257.0
asF380.0
(lp381
F411.0
aF550.0
aF1334.0
aF1317.0
aF464.0
aF1157.0
aF166.0
aF100.0
aF1204.0
asF381.0
(lp382
F1209.0
aF1310.0
aF309.0
aF762.0
aF218.0
aF316.0
aF1152.0
aF528.0
aF77.0
asF382.0
(lp383
F782.0
aF127.0
aF6.0
aF750.0
aF119.0
aF467.0
aF1242.0
aF428.0
aF841.0
asF383.0
(lp384
F584.0
aF306.0
aF201.0
aF377.0
aF1300.0
aF153.0
aF1103.0
aF428.0
aF972.0
asF384.0
(lp385
F718.0
aF847.0
aF879.0
aF309.0
aF1234.0
aF551.0
aF429.0
aF491.0
aF1121.0
asF385.0
(lp386
F1047.0
aF493.0
aF1391.0
aF676.0
aF812.0
aF760.0
aF282.0
aF822.0
aF264.0
asF386.0
(lp387
F65.0
aF618.0
aF432.0
aF993.0
aF1197.0
aF477.0
aF823.0
aF595.0
aF538.0
asF387.0
(lp388
F896.0
aF1349.0
aF917.0
aF1375.0
aF488.0
aF572.0
aF395.0
aF491.0
aF198.0
asF388.0
(lp389
F1210.0
aF317.0
aF1181.0
aF663.0
aF947.0
aF488.0
aF946.0
aF1396.0
aF181.0
asF389.0
(lp390
F739.0
aF1179.0
aF588.0
aF427.0
aF634.0
aF597.0
aF1019.0
aF640.0
aF585.0
asF390.0
(lp391
F1404.0
aF64.0
aF207.0
aF140.0
aF762.0
aF6.0
aF871.0
aF299.0
aF397.0
asF391.0
(lp392
F943.0
aF325.0
aF91.0
aF1040.0
aF1121.0
aF1279.0
aF181.0
aF915.0
aF449.0
asF392.0
(lp393
F343.0
aF1170.0
aF1389.0
aF204.0
aF861.0
aF1334.0
aF1026.0
aF715.0
aF31.0
asF393.0
(lp394
F1386.0
aF28.0
aF131.0
aF1364.0
aF724.0
aF1135.0
aF91.0
aF491.0
aF1259.0
asF394.0
(lp395
F929.0
aF132.0
aF927.0
aF857.0
aF1317.0
aF1407.0
aF324.0
aF91.0
aF1101.0
asF395.0
(lp396
F1391.0
aF1203.0
aF1363.0
aF757.0
aF549.0
aF1390.0
aF318.0
aF1206.0
aF1246.0
asF396.0
(lp397
F158.0
aF903.0
aF904.0
aF1216.0
aF814.0
aF1270.0
aF198.0
aF41.0
aF202.0
asF397.0
(lp398
F149.0
aF1073.0
aF1254.0
aF812.0
aF514.0
aF566.0
aF4.0
aF1297.0
aF845.0
asF398.0
(lp399
F773.0
aF149.0
aF1366.0
aF514.0
aF861.0
aF488.0
aF1187.0
aF1390.0
aF1367.0
asF399.0
(lp400
F971.0
aF1334.0
aF751.0
aF361.0
aF1164.0
aF609.0
aF342.0
aF675.0
aF1279.0
asF400.0
(lp401
F739.0
aF127.0
aF508.0
aF257.0
aF438.0
aF294.0
aF45.0
aF1224.0
aF1206.0
asF401.0
(lp402
F416.0
aF1304.0
aF875.0
aF477.0
aF942.0
aF844.0
aF241.0
aF1204.0
aF202.0
asF402.0
(lp403
F1394.0
aF778.0
aF1188.0
aF753.0
aF1369.0
aF560.0
aF94.0
aF498.0
aF1257.0
asF403.0
(lp404
F1382.0
aF1002.0
aF692.0
aF420.0
aF1339.0
aF1327.0
aF282.0
aF467.0
aF91.0
asF404.0
(lp405
F615.0
aF1391.0
aF140.0
aF1045.0
aF1059.0
aF488.0
aF1369.0
aF822.0
aF845.0
asF405.0
(lp406
F825.0
aF274.0
aF302.0
aF1254.0
aF1200.0
aF678.0
aF898.0
aF1030.0
aF668.0
asF406.0
(lp407
F901.0
aF1408.0
aF507.0
aF1073.0
aF266.0
aF724.0
aF822.0
aF195.0
aF181.0
asF407.0
(lp408
F940.0
aF286.0
aF974.0
aF1249.0
aF1339.0
aF760.0
aF340.0
aF639.0
aF701.0
asF408.0
(lp409
F203.0
aF64.0
aF375.0
aF754.0
aF843.0
aF162.0
aF751.0
aF1224.0
aF1206.0
asF409.0
(lp410
F1267.0
aF708.0
aF1140.0
aF1079.0
aF294.0
aF108.0
aF936.0
aF1390.0
aF915.0
asF410.0
(lp411
F402.0
aF1339.0
aF406.0
aF844.0
aF198.0
aF1040.0
aF473.0
aF31.0
aF1024.0
asF411.0
(lp412
F1397.0
aF710.0
aF535.0
aF760.0
aF937.0
aF144.0
aF1300.0
aF826.0
aF832.0
asF412.0
(lp413
F652.0
aF1163.0
aF779.0
aF877.0
aF233.0
aF560.0
aF1081.0
aF1396.0
aF772.0
asF413.0
(lp414
F671.0
aF127.0
aF539.0
aF384.0
aF512.0
aF1214.0
aF405.0
aF551.0
aF869.0
asF414.0
(lp415
F35.0
aF900.0
aF760.0
aF361.0
aF1125.0
aF1300.0
aF1367.0
aF287.0
aF1259.0
asF415.0
(lp416
F782.0
aF17.0
aF415.0
aF340.0
aF147.0
aF1196.0
aF407.0
aF96.0
aF155.0
asF416.0
(lp417
F1160.0
aF718.0
aF896.0
aF453.0
aF888.0
aF84.0
aF898.0
aF794.0
aF1121.0
asF417.0
(lp418
F1286.0
aF545.0
aF574.0
aF266.0
aF988.0
aF307.0
aF1327.0
aF1058.0
asF418.0
(lp419
F988.0
aF1176.0
aF1248.0
aF98.0
aF1369.0
aF1223.0
aF844.0
aF946.0
asF419.0
(lp420
F1060.0
aF123.0
aF712.0
aF942.0
aF1409.0
aF1026.0
aF1312.0
aF848.0
asF420.0
(lp421
F1391.0
aF947.0
aF276.0
aF964.0
aF804.0
aF1369.0
aF198.0
aF1246.0
asF421.0
(lp422
F68.0
aF709.0
aF33.0
aF298.0
aF697.0
aF1157.0
aF215.0
aF31.0
asF422.0
(lp423
F1310.0
aF468.0
aF1071.0
aF90.0
aF1019.0
aF0.0
aF166.0
aF31.0
asF423.0
(lp424
F709.0
aF532.0
aF618.0
aF846.0
aF870.0
aF1387.0
aF772.0
aF815.0
asF424.0
(lp425
F488.0
aF724.0
aF1019.0
aF844.0
aF166.0
aF1206.0
aF1121.0
aF449.0
asF425.0
(lp426
F1066.0
aF697.0
aF453.0
aF1322.0
aF144.0
aF390.0
aF463.0
aF1204.0
asF426.0
(lp427
F254.0
aF1212.0
aF204.0
aF1244.0
aF1000.0
aF1223.0
aF1077.0
aF1019.0
asF427.0
(lp428
F709.0
aF690.0
aF1140.0
aF1339.0
aF398.0
aF753.0
aF1103.0
aF181.0
asF428.0
(lp429
F802.0
aF184.0
aF1229.0
aF645.0
aF440.0
aF288.0
aF1026.0
aF611.0
asF429.0
(lp430
F556.0
aF296.0
aF1296.0
aF213.0
aF566.0
aF597.0
aF1026.0
aF1204.0
asF430.0
(lp431
F782.0
aF1315.0
aF1111.0
aF404.0
aF540.0
aF1194.0
aF161.0
aF524.0
asF431.0
(lp432
F109.0
aF545.0
aF1007.0
aF1248.0
aF900.0
aF1369.0
aF1257.0
aF841.0
asF432.0
(lp433
F492.0
aF803.0
aF136.0
aF770.0
aF667.0
aF634.0
aF31.0
aF1235.0
asF433.0
(lp434
F1208.0
aF563.0
aF967.0
aF1397.0
aF188.0
aF382.0
aF1202.0
aF675.0
asF434.0
(lp435
F416.0
aF28.0
aF1229.0
aF1237.0
aF1223.0
aF551.0
aF1121.0
aF186.0
asF435.0
(lp436
F709.0
aF839.0
aF1212.0
aF645.0
aF494.0
aF163.0
aF528.0
aF1121.0
asF436.0
(lp437
F257.0
aF762.0
aF191.0
aF246.0
aF1258.0
aF870.0
aF279.0
aF1035.0
asF437.0
(lp438
F893.0
aF1213.0
aF900.0
aF282.0
aF1102.0
aF248.0
aF96.0
aF845.0
asF438.0
(lp439
F1047.0
aF416.0
aF1065.0
aF309.0
aF98.0
aF601.0
aF120.0
aF567.0
asF439.0
(lp440
F993.0
aF814.0
aF753.0
aF986.0
aF1081.0
aF287.0
aF198.0
aF777.0
asF440.0
(lp441
F1391.0
aF810.0
aF353.0
aF404.0
aF523.0
aF1206.0
aF1121.0
aF1024.0
asF441.0
(lp442
F1391.0
aF1267.0
aF555.0
aF947.0
aF246.0
aF523.0
aF467.0
aF261.0
asF442.0
(lp443
F580.0
aF8.0
aF404.0
aF464.0
aF377.0
aF558.0
aF826.0
aF1202.0
asF443.0
(lp444
F671.0
aF876.0
aF1374.0
aF1176.0
aF879.0
aF272.0
aF361.0
aF473.0
asF444.0
(lp445
F1228.0
aF455.0
aF625.0
aF512.0
aF951.0
aF166.0
aF77.0
aF31.0
asF445.0
(lp446
F333.0
aF903.0
aF1363.0
aF512.0
aF1390.0
aF1217.0
aF915.0
aF894.0
asF446.0
(lp447
F545.0
aF712.0
aF547.0
aF488.0
aF667.0
aF538.0
aF682.0
aF399.0
asF447.0
(lp448
F1408.0
aF137.0
aF644.0
aF1293.0
aF1002.0
aF1316.0
aF1256.0
aF335.0
asF448.0
(lp449
F81.0
aF879.0
aF1019.0
aF1234.0
aF437.0
aF1396.0
aF91.0
aF180.0
asF449.0
(lp450
F506.0
aF652.0
aF168.0
aF1002.0
aF695.0
aF410.0
aF990.0
aF299.0
asF450.0
(lp451
F1066.0
aF128.0
aF512.0
aF1355.0
aF936.0
aF1090.0
aF247.0
aF551.0
asF451.0
(lp452
F1149.0
aF1180.0
aF941.0
aF1291.0
aF464.0
aF1214.0
aF1000.0
aF912.0
asF452.0
(lp453
F159.0
aF238.0
aF677.0
aF811.0
aF1081.0
aF1028.0
aF484.0
aF1204.0
asF453.0
(lp454
F1203.0
aF732.0
aF488.0
aF1223.0
aF790.0
aF1102.0
aF491.0
aF198.0
asF454.0
(lp455
F343.0
aF805.0
aF535.0
aF92.0
aF57.0
aF1224.0
aF195.0
aF31.0
asF455.0
(lp456
F739.0
aF782.0
aF940.0
aF188.0
aF921.0
aF464.0
aF213.0
aF382.0
asF456.0
(lp457
F245.0
aF382.0
aF946.0
aF1103.0
aF198.0
aF619.0
aF772.0
aF1227.0
asF457.0
(lp458
F615.0
aF330.0
aF692.0
aF1394.0
aF412.0
aF553.0
aF1237.0
aF1257.0
asF458.0
(lp459
F401.0
aF1350.0
aF1148.0
aF888.0
aF288.0
aF902.0
aF995.0
aF433.0
asF459.0
(lp460
F32.0
aF111.0
aF194.0
aF703.0
aF1297.0
aF428.0
aF632.0
aF841.0
asF460.0
(lp461
F786.0
aF511.0
aF1248.0
aF201.0
aF16.0
aF1103.0
aF1312.0
aF462.0
asF461.0
(lp462
F755.0
aF1289.0
aF328.0
aF30.0
aF720.0
aF95.0
aF316.0
aF354.0
asF462.0
(lp463
F834.0
aF802.0
aF309.0
aF501.0
aF693.0
aF22.0
aF936.0
aF551.0
asF463.0
(lp464
F1002.0
aF635.0
aF271.0
aF702.0
aF667.0
aF814.0
aF936.0
aF399.0
asF464.0
(lp465
F988.0
aF905.0
aF577.0
aF1394.0
aF512.0
aF252.0
aF523.0
aF811.0
asF465.0
(lp466
F829.0
aF269.0
aF123.0
aF374.0
aF607.0
aF844.0
aF931.0
aF772.0
asF466.0
(lp467
F739.0
aF493.0
aF316.0
aF1314.0
aF190.0
aF1121.0
aF31.0
aF915.0
asF467.0
(lp468
F510.0
aF580.0
aF454.0
aF117.0
aF762.0
aF1016.0
aF373.0
aF338.0
asF468.0
(lp469
F1184.0
aF400.0
aF947.0
aF191.0
aF464.0
aF1187.0
aF760.0
aF946.0
asF469.0
(lp470
F1093.0
aF753.0
aF490.0
aF1135.0
aF338.0
aF114.0
aF473.0
aF212.0
asF470.0
(lp471
F615.0
aF1047.0
aF1369.0
aF144.0
aF325.0
aF287.0
aF337.0
aF632.0
asF471.0
(lp472
F1324.0
aF422.0
aF545.0
aF19.0
aF194.0
aF1403.0
aF1384.0
aF467.0
asF472.0
(lp473
F809.0
aF1339.0
aF760.0
aF1390.0
aF96.0
aF41.0
aF196.0
aF869.0
asF473.0
(lp474
F44.0
aF450.0
aF1221.0
aF83.0
aF294.0
aF783.0
aF178.0
aF1052.0
asF474.0
(lp475
F245.0
aF1339.0
aF1214.0
aF1409.0
aF340.0
aF1369.0
aF1040.0
aF196.0
asF475.0
(lp476
F123.0
aF1237.0
aF618.0
aF1093.0
aF1192.0
aF696.0
aF1030.0
aF627.0
asF476.0
(lp477
F1405.0
aF1371.0
aF842.0
aF519.0
aF482.0
aF1000.0
aF1046.0
aF69.0
asF477.0
(lp478
F497.0
aF1094.0
aF1214.0
aF523.0
aF57.0
aF551.0
aF1040.0
aF781.0
asF478.0
(lp479
F65.0
aF142.0
aF213.0
aF760.0
aF503.0
aF134.0
aF1217.0
aF491.0
asF479.0
(lp480
F709.0
aF712.0
aF1339.0
aF1342.0
aF753.0
aF1224.0
aF1135.0
asF480.0
(lp481
F726.0
aF1170.0
aF292.0
aF488.0
aF213.0
aF936.0
aF790.0
asF481.0
(lp482
F1391.0
aF495.0
aF6.0
aF760.0
aF835.0
aF198.0
aF1092.0
asF482.0
(lp483
F1371.0
aF642.0
aF1175.0
aF645.0
aF365.0
aF538.0
aF382.0
asF483.0
(lp484
F646.0
aF191.0
aF1187.0
aF675.0
aF1396.0
aF772.0
aF181.0
asF484.0
(lp485
F67.0
aF1096.0
aF514.0
aF178.0
aF946.0
aF675.0
aF155.0
asF485.0
(lp486
F1320.0
aF1115.0
aF398.0
aF486.0
aF609.0
aF41.0
aF341.0
asF486.0
(lp487
F782.0
aF850.0
aF1175.0
aF1321.0
aF244.0
aF894.0
aF869.0
asF487.0
(lp488
F1222.0
aF509.0
aF1047.0
aF967.0
aF448.0
aF667.0
aF1081.0
asF488.0
(lp489
F900.0
aF962.0
aF1223.0
aF1285.0
aF490.0
aF1384.0
aF114.0
asF489.0
(lp490
F33.0
aF8.0
aF1340.0
aF178.0
aF415.0
aF1379.0
aF715.0
asF490.0
(lp491
F509.0
aF940.0
aF888.0
aF1194.0
aF703.0
aF995.0
aF287.0
asF491.0
(lp492
F131.0
aF1112.0
aF1071.0
aF191.0
aF364.0
aF166.0
aF1206.0
asF492.0
(lp493
F803.0
aF970.0
aF50.0
aF349.0
aF743.0
aF512.0
aF1199.0
asF493.0
(lp494
F1134.0
aF535.0
aF227.0
aF1296.0
aF1214.0
aF494.0
aF282.0
asF494.0
(lp495
F755.0
aF1186.0
aF1338.0
aF1098.0
aF1152.0
aF567.0
aF627.0
asF495.0
(lp496
F383.0
aF612.0
aF1332.0
aF1328.0
aF662.0
aF282.0
aF469.0
asF496.0
(lp497
F903.0
aF1375.0
aF1220.0
aF1152.0
aF1258.0
aF794.0
aF166.0
asF497.0
(lp498
F1142.0
aF1143.0
aF513.0
aF728.0
aF228.0
aF361.0
aF94.0
asF498.0
(lp499
F132.0
aF327.0
aF503.0
aF1058.0
aF796.0
aF772.0
aF691.0
asF499.0
(lp500
F882.0
aF1111.0
aF989.0
aF1383.0
aF1369.0
aF826.0
aF1257.0
asF500.0
(lp501
F521.0
aF488.0
aF900.0
aF191.0
aF1091.0
aF977.0
aF632.0
asF501.0
(lp502
F169.0
aF353.0
aF896.0
aF1130.0
aF798.0
aF419.0
aF97.0
asF502.0
(lp503
F28.0
aF191.0
aF605.0
aF14.0
aF979.0
aF180.0
aF155.0
asF503.0
(lp504
F546.0
aF512.0
aF760.0
aF415.0
aF197.0
aF491.0
aF31.0
asF504.0
(lp505
F709.0
aF18.0
aF1331.0
aF757.0
aF551.0
aF1242.0
aF524.0
asF505.0
(lp506
F343.0
aF136.0
aF274.0
aF993.0
aF1300.0
aF429.0
aF837.0
asF506.0
(lp507
F509.0
aF1201.0
aF1086.0
aF835.0
aF113.0
aF399.0
aF915.0
asF507.0
(lp508
F425.0
aF993.0
aF1344.0
aF1300.0
aF491.0
aF1341.0
aF746.0
asF508.0
(lp509
F131.0
aF488.0
aF495.0
aF1355.0
aF385.0
aF995.0
aF1121.0
asF509.0
(lp510
F594.0
aF813.0
aF1369.0
aF658.0
aF715.0
aF632.0
aF845.0
asF510.0
(lp511
F788.0
aF216.0
aF1342.0
aF703.0
aF1217.0
aF399.0
aF772.0
asF511.0
(lp512
F132.0
aF411.0
aF1295.0
aF813.0
aF490.0
aF815.0
aF1154.0
asF512.0
(lp513
F664.0
aF476.0
aF532.0
aF1369.0
aF538.0
aF55.0
aF1279.0
asF513.0
(lp514
F447.0
aF188.0
aF576.0
aF1300.0
aF1081.0
aF725.0
aF196.0
asF514.0
(lp515
F535.0
aF1369.0
aF464.0
aF935.0
aF1157.0
aF1081.0
aF815.0
asF515.0
(lp516
F573.0
aF842.0
aF778.0
aF188.0
aF276.0
aF1300.0
aF1081.0
asF516.0
(lp517
F821.0
aF276.0
aF682.0
aF79.0
aF198.0
aF602.0
aF1204.0
asF517.0
(lp518
F896.0
aF971.0
aF270.0
aF645.0
aF900.0
aF282.0
aF198.0
asF518.0
(lp519
F1066.0
aF266.0
aF453.0
aF1009.0
aF1054.0
aF382.0
aF1135.0
asF519.0
(lp520
F1055.0
aF756.0
aF621.0
aF15.0
aF501.0
aF1224.0
aF1309.0
asF520.0
(lp521
F939.0
aF888.0
aF724.0
aF1359.0
aF467.0
aF248.0
aF948.0
asF521.0
(lp522
F755.0
aF773.0
aF416.0
aF436.0
aF945.0
aF390.0
aF855.0
asF522.0
(lp523
F786.0
aF374.0
aF480.0
aF163.0
aF794.0
aF1081.0
aF848.0
asF523.0
(lp524
F893.0
aF579.0
aF464.0
aF942.0
aF1000.0
aF241.0
aF196.0
asF524.0
(lp525
F416.0
aF1031.0
aF988.0
aF1175.0
aF964.0
aF92.0
aF560.0
asF525.0
(lp526
F830.0
aF782.0
aF709.0
aF302.0
aF385.0
aF936.0
aF1224.0
asF526.0
(lp527
F1060.0
aF464.0
aF1214.0
aF154.0
aF760.0
aF572.0
aF91.0
asF527.0
(lp528
F581.0
aF695.0
aF204.0
aF724.0
aF356.0
aF1223.0
aF186.0
asF528.0
(lp529
F1180.0
aF581.0
aF412.0
aF294.0
aF871.0
aF1224.0
aF675.0
asF529.0
(lp530
F718.0
aF394.0
aF300.0
aF1002.0
aF692.0
aF1288.0
aF1235.0
asF530.0
(lp531
F907.0
aF1368.0
aF797.0
aF892.0
aF1050.0
aF1218.0
aF243.0
asF531.0
(lp532
F889.0
aF698.0
aF994.0
aF603.0
aF743.0
aF861.0
aF31.0
asF532.0
(lp533
F1190.0
aF695.0
aF1096.0
aF1214.0
aF415.0
aF1157.0
aF915.0
asF533.0
(lp534
F988.0
aF697.0
aF309.0
aF94.0
aF1206.0
aF520.0
aF31.0
asF534.0
(lp535
F922.0
aF1291.0
aF1407.0
aF794.0
aF551.0
aF1121.0
aF864.0
asF535.0
(lp536
F1178.0
aF1126.0
aF277.0
aF695.0
aF1167.0
aF191.0
aF316.0
asF536.0
(lp537
F830.0
aF709.0
aF574.0
aF618.0
aF751.0
aF316.0
aF364.0
asF537.0
(lp538
F509.0
aF448.0
aF1397.0
aF888.0
aF835.0
aF909.0
aF1090.0
asF538.0
(lp539
F810.0
aF645.0
aF898.0
aF1152.0
aF675.0
aF161.0
aF819.0
asF539.0
(lp540
F18.0
aF547.0
aF365.0
aF1234.0
aF484.0
aF777.0
aF196.0
asF540.0
(lp541
F1180.0
aF1391.0
aF613.0
aF1187.0
aF760.0
aF195.0
aF915.0
asF541.0
(lp542
F167.0
aF1175.0
aF993.0
aF1344.0
aF1107.0
aF558.0
aF1403.0
asF542.0
(lp543
F690.0
aF488.0
aF667.0
aF1223.0
aF325.0
aF1257.0
aF845.0
asF543.0
(lp544
F366.0
aF1045.0
aF452.0
aF279.0
aF1274.0
aF1367.0
aF977.0
asF544.0
(lp545
F799.0
aF275.0
aF156.0
aF806.0
aF611.0
aF195.0
aF1257.0
asF545.0
(lp546
F515.0
aF724.0
aF119.0
aF895.0
aF153.0
aF551.0
aF1017.0
asF546.0
(lp547
F773.0
aF476.0
aF20.0
aF122.0
aF194.0
aF522.0
aF1183.0
asF547.0
(lp548
F938.0
aF839.0
aF908.0
aF98.0
aF119.0
aF946.0
aF91.0
asF548.0
(lp549
F615.0
aF133.0
aF1385.0
aF1297.0
aF674.0
aF161.0
aF41.0
asF549.0
(lp550
F1170.0
aF1060.0
aF804.0
aF464.0
aF1214.0
aF760.0
aF198.0
asF550.0
(lp551
F416.0
aF1050.0
aF618.0
aF365.0
aF192.0
aF1204.0
aF894.0
asF551.0
(lp552
F728.0
aF119.0
aF1297.0
aF582.0
aF469.0
aF120.0
asF552.0
(lp553
F830.0
aF709.0
aF1080.0
aF646.0
aF464.0
aF246.0
asF553.0
(lp554
F1180.0
aF296.0
aF780.0
aF1090.0
aF173.0
aF181.0
asF554.0
(lp555
F302.0
aF1217.0
aF1146.0
aF551.0
aF299.0
aF77.0
asF555.0
(lp556
F1214.0
aF1056.0
aF134.0
aF551.0
aF190.0
aF524.0
asF556.0
(lp557
F1047.0
aF346.0
aF547.0
aF288.0
aF1090.0
aF817.0
asF557.0
(lp558
F1277.0
aF86.0
aF194.0
aF724.0
aF703.0
aF1109.0
asF558.0
(lp559
F253.0
aF940.0
aF780.0
aF877.0
aF519.0
aF449.0
asF559.0
(lp560
F1334.0
aF225.0
aF1385.0
aF409.0
aF1325.0
aF972.0
asF560.0
(lp561
F129.0
aF750.0
aF163.0
aF467.0
aF1242.0
aF841.0
asF561.0
(lp562
F718.0
aF940.0
aF1084.0
aF1248.0
aF113.0
aF1034.0
asF562.0
(lp563
F404.0
aF812.0
aF514.0
aF1400.0
aF287.0
aF155.0
asF563.0
(lp564
F312.0
aF384.0
aF134.0
aF986.0
aF963.0
aF1302.0
asF564.0
(lp565
F492.0
aF1073.0
aF226.0
aF472.0
aF1390.0
aF1146.0
asF565.0
(lp566
F763.0
aF483.0
aF1237.0
aF1107.0
aF1223.0
aF31.0
asF566.0
(lp567
F993.0
aF245.0
aF399.0
aF463.0
aF1024.0
aF449.0
asF567.0
(lp568
F28.0
aF712.0
aF325.0
aF195.0
aF777.0
aF915.0
asF568.0
(lp569
F762.0
aF1398.0
aF1223.0
aF1369.0
aF777.0
aF1278.0
asF569.0
(lp570
F847.0
aF1065.0
aF656.0
aF204.0
aF22.0
aF1052.0
asF570.0
(lp571
F720.0
aF1201.0
aF313.0
aF813.0
aF88.0
aF318.0
asF571.0
(lp572
F148.0
aF633.0
aF642.0
aF514.0
aF1390.0
aF49.0
asF572.0
(lp573
F1047.0
aF876.0
aF488.0
aF282.0
aF703.0
aF841.0
asF573.0
(lp574
F1151.0
aF950.0
aF750.0
aF287.0
aF632.0
aF449.0
asF574.0
(lp575
F721.0
aF877.0
aF965.0
aF804.0
aF822.0
aF1204.0
asF575.0
(lp576
F1336.0
aF11.0
aF796.0
aF354.0
aF212.0
aF894.0
asF576.0
(lp577
F1225.0
aF535.0
aF194.0
aF667.0
aF849.0
aF280.0
asF577.0
(lp578
F86.0
aF983.0
aF415.0
aF1369.0
aF395.0
aF198.0
asF578.0
(lp579
F752.0
aF547.0
aF1281.0
aF287.0
aF632.0
aF866.0
asF579.0
(lp580
F320.0
aF245.0
aF201.0
aF1214.0
aF1355.0
aF844.0
asF580.0
(lp581
F1212.0
aF90.0
aF315.0
aF936.0
aF1297.0
aF864.0
asF581.0
(lp582
F250.0
aF804.0
aF282.0
aF1234.0
aF241.0
aF198.0
asF582.0
(lp583
F488.0
aF477.0
aF464.0
aF178.0
aF942.0
aF161.0
asF583.0
(lp584
F245.0
aF753.0
aF91.0
aF619.0
aF972.0
aF173.0
asF584.0
(lp585
F877.0
aF1044.0
aF178.0
aF340.0
aF824.0
aF358.0
asF585.0
(lp586
F903.0
aF213.0
aF1355.0
aF560.0
aF1206.0
aF959.0
asF586.0
(lp587
F574.0
aF404.0
aF863.0
aF488.0
aF957.0
aF1121.0
asF587.0
(lp588
F861.0
aF1327.0
aF724.0
aF399.0
aF467.0
aF138.0
asF588.0
(lp589
F988.0
aF1175.0
aF1000.0
aF1077.0
aF912.0
aF491.0
asF589.0
(lp590
F214.0
aF558.0
aF325.0
aF70.0
aF794.0
aF1102.0
asF590.0
(lp591
F497.0
aF1294.0
aF493.0
aF629.0
aF53.0
aF936.0
asF591.0
(lp592
F1210.0
aF506.0
aF1239.0
aF660.0
aF415.0
aF715.0
asF592.0
(lp593
F950.0
aF993.0
aF382.0
aF1068.0
aF777.0
aF1257.0
asF593.0
(lp594
F773.0
aF592.0
aF266.0
aF255.0
aF533.0
aF757.0
asF594.0
(lp595
F512.0
aF794.0
aF1135.0
aF31.0
aF845.0
aF449.0
asF595.0
(lp596
F1294.0
aF803.0
aF547.0
aF14.0
aF912.0
aF181.0
asF596.0
(lp597
F739.0
aF508.0
aF206.0
aF361.0
aF288.0
aF340.0
asF597.0
(lp598
F11.0
aF106.0
aF420.0
aF724.0
aF870.0
aF467.0
asF598.0
(lp599
F692.0
aF804.0
aF667.0
aF524.0
aF31.0
aF341.0
asF599.0
(lp600
F901.0
aF612.0
aF1079.0
aF1409.0
aF962.0
aF551.0
asF600.0
(lp601
F66.0
aF940.0
aF1394.0
aF1000.0
aF1314.0
aF1155.0
asF601.0
(lp602
F842.0
aF760.0
aF415.0
aF1376.0
aF31.0
aF397.0
asF602.0
(lp603
F812.0
aF778.0
aF760.0
aF318.0
aF467.0
aF1204.0
asF603.0
(lp604
F778.0
aF1407.0
aF113.0
aF1081.0
aF675.0
aF91.0
asF604.0
(lp605
F553.0
aF1369.0
aF1067.0
aF1300.0
aF790.0
aF602.0
asF605.0
(lp606
F1176.0
aF257.0
aF1303.0
aF1397.0
aF824.0
aF339.0
asF606.0
(lp607
F65.0
aF1176.0
aF230.0
aF816.0
aF191.0
aF835.0
asF607.0
(lp608
F967.0
aF812.0
aF263.0
aF1000.0
aF1030.0
aF668.0
asF608.0
(lp609
F616.0
aF765.0
aF292.0
aF1256.0
aF919.0
aF75.0
asF609.0
(lp610
F1170.0
aF38.0
aF658.0
aF264.0
aF1116.0
aF196.0
asF610.0
(lp611
F254.0
aF955.0
aF204.0
aF965.0
aF1344.0
aF467.0
asF611.0
(lp612
F1365.0
aF984.0
aF512.0
aF92.0
aF178.0
aF415.0
asF612.0
(lp613
F744.0
aF794.0
aF1376.0
aF491.0
aF449.0
aF339.0
asF613.0
(lp614
F782.0
aF839.0
aF245.0
aF90.0
aF582.0
aF71.0
asF614.0
(lp615
F132.0
aF1176.0
aF284.0
aF488.0
aF229.0
aF632.0
asF615.0
(lp616
F718.0
aF1261.0
aF693.0
aF385.0
aF22.0
aF334.0
asF616.0
(lp617
F729.0
aF903.0
aF861.0
aF1019.0
aF57.0
aF912.0
asF617.0
(lp618
F546.0
aF577.0
aF728.0
aF47.0
aF845.0
aF1259.0
asF618.0
(lp619
F401.0
aF509.0
aF1374.0
aF724.0
aF835.0
aF1227.0
asF619.0
(lp620
F1315.0
aF208.0
aF952.0
aF302.0
aF41.0
aF341.0
asF620.0
(lp621
F119.0
aF1026.0
aF560.0
aF195.0
aF1025.0
aF341.0
asF621.0
(lp622
F1134.0
aF561.0
aF418.0
aF191.0
aF1081.0
aF473.0
asF622.0
(lp623
F755.0
aF64.0
aF1409.0
aF1077.0
aF484.0
aF1037.0
asF623.0
(lp624
F92.0
aF760.0
aF1220.0
aF282.0
aF1135.0
aF198.0
asF624.0
(lp625
F388.0
aF810.0
aF678.0
aF560.0
aF524.0
aF915.0
asF625.0
(lp626
F1055.0
aF1324.0
aF1047.0
aF95.0
aF1148.0
aF1344.0
asF626.0
(lp627
F877.0
aF535.0
aF1300.0
aF1257.0
aF1259.0
aF449.0
asF627.0
(lp628
F644.0
aF292.0
aF452.0
aF645.0
aF1016.0
aF811.0
asF628.0
(lp629
F426.0
aF842.0
aF645.0
aF761.0
aF491.0
aF41.0
asF629.0
(lp630
F1254.0
aF888.0
aF1056.0
aF134.0
aF1329.0
aF107.0
asF630.0
(lp631
F296.0
aF282.0
aF1300.0
aF190.0
aF1053.0
aF1024.0
asF631.0
(lp632
F613.0
aF774.0
aF488.0
aF316.0
aF1369.0
aF181.0
asF632.0
(lp633
F64.0
aF1331.0
aF1048.0
aF498.0
aF602.0
aF1204.0
asF633.0
(lp634
F1111.0
aF1168.0
aF613.0
aF838.0
aF1103.0
aF41.0
asF634.0
(lp635
F547.0
aF245.0
aF744.0
aF1125.0
aF995.0
aF491.0
asF635.0
(lp636
F162.0
aF361.0
aF1009.0
aF936.0
aF1206.0
aF1121.0
asF636.0
(lp637
F459.0
aF176.0
aF844.0
aF1206.0
aF463.0
aF885.0
asF637.0
(lp638
F698.0
aF411.0
aF158.0
aF888.0
aF1121.0
aF894.0
asF638.0
(lp639
F727.0
aF1086.0
aF1027.0
aF751.0
aF494.0
aF1278.0
asF639.0
(lp640
F615.0
aF1138.0
aF1090.0
aF318.0
aF997.0
aF826.0
asF640.0
(lp641
F177.0
aF1130.0
aF1213.0
aF744.0
aF794.0
aF790.0
asF641.0
(lp642
F852.0
aF803.0
aF302.0
aF597.0
aF1376.0
aF1035.0
asF642.0
(lp643
F574.0
aF284.0
aF246.0
aF385.0
aF94.0
aF1121.0
asF643.0
(lp644
F488.0
aF888.0
aF1129.0
aF282.0
aF733.0
aF421.0
asF644.0
(lp645
F830.0
aF57.0
aF794.0
aF248.0
aF1121.0
aF339.0
asF645.0
(lp646
F1184.0
aF193.0
aF124.0
aF1397.0
aF427.0
aF57.0
asF646.0
(lp647
F1074.0
aF934.0
aF687.0
aF1390.0
aF91.0
aF815.0
asF647.0
(lp648
F863.0
aF928.0
aF69.0
aF198.0
aF1345.0
aF449.0
asF648.0
(lp649
F1404.0
aF726.0
aF1066.0
aF142.0
aF377.0
aF335.0
asF649.0
(lp650
F1184.0
aF695.0
aF94.0
aF166.0
aF77.0
aF31.0
asF650.0
(lp651
F739.0
aF33.0
aF903.0
aF1392.0
aF512.0
aF1224.0
asF651.0
(lp652
F454.0
aF1143.0
aF795.0
aF751.0
aF423.0
aF528.0
asF652.0
(lp653
F81.0
aF393.0
aF1303.0
aF646.0
aF91.0
aF789.0
asF653.0
(lp654
F28.0
aF430.0
aF503.0
aF1019.0
aF161.0
aF1035.0
asF654.0
(lp655
F33.0
aF1394.0
aF427.0
aF1358.0
aF1026.0
aF578.0
asF655.0
(lp656
F929.0
aF1065.0
aF454.0
aF926.0
aF1052.0
asF656.0
(lp657
F622.0
aF917.0
aF464.0
aF287.0
aF264.0
asF657.0
(lp658
F360.0
aF1112.0
aF399.0
aF562.0
aF845.0
asF658.0
(lp659
F1374.0
aF1082.0
aF751.0
aF464.0
aF832.0
asF659.0
(lp660
F1286.0
aF716.0
aF1060.0
aF464.0
aF31.0
asF660.0
(lp661
F18.0
aF1007.0
aF98.0
aF1051.0
aF957.0
asF661.0
(lp662
F547.0
aF1107.0
aF1046.0
aF1258.0
aF1001.0
asF662.0
(lp663
F32.0
aF739.0
aF402.0
aF294.0
aF316.0
asF663.0
(lp664
F64.0
aF245.0
aF1234.0
aF528.0
aF815.0
asF664.0
(lp665
F533.0
aF191.0
aF1327.0
aF94.0
aF772.0
asF665.0
(lp666
F446.0
aF901.0
aF545.0
aF92.0
aF1390.0
asF666.0
(lp667
F1228.0
aF127.0
aF978.0
aF398.0
aF385.0
asF667.0
(lp668
F276.0
aF981.0
aF134.0
aF166.0
aF1103.0
asF668.0
(lp669
F245.0
aF464.0
aF282.0
aF703.0
aF287.0
asF669.0
(lp670
F754.0
aF340.0
aF1103.0
aF358.0
aF198.0
asF670.0
(lp671
F922.0
aF1225.0
aF842.0
aF917.0
aF655.0
asF671.0
(lp672
F1110.0
aF917.0
aF1339.0
aF551.0
aF198.0
asF672.0
(lp673
F50.0
aF577.0
aF127.0
aF248.0
aF10.0
asF673.0
(lp674
F545.0
aF1338.0
aF1355.0
aF195.0
aF41.0
asF674.0
(lp675
F940.0
aF900.0
aF464.0
aF1362.0
aF602.0
asF675.0
(lp676
F821.0
aF992.0
aF1134.0
aF1056.0
aF180.0
asF676.0
(lp677
F389.0
aF92.0
aF119.0
aF490.0
aF31.0
asF677.0
(lp678
F514.0
aF1118.0
aF942.0
aF1409.0
aF1217.0
asF678.0
(lp679
F739.0
aF1391.0
aF804.0
aF767.0
aF196.0
asF679.0
(lp680
F723.0
aF245.0
aF1344.0
aF104.0
aF675.0
asF680.0
(lp681
F616.0
aF729.0
aF377.0
aF22.0
aF491.0
asF681.0
(lp682
F304.0
aF1073.0
aF988.0
aF612.0
aF248.0
asF682.0
(lp683
F509.0
aF1176.0
aF813.0
aF282.0
aF354.0
asF683.0
(lp684
F584.0
aF1214.0
aF794.0
aF1300.0
aF1135.0
asF684.0
(lp685
F1364.0
aF115.0
aF682.0
aF1387.0
aF1121.0
asF685.0
(lp686
F888.0
aF92.0
aF282.0
aF198.0
aF181.0
asF686.0
(lp687
F534.0
aF198.0
aF96.0
aF130.0
aF31.0
asF687.0
(lp688
F90.0
aF246.0
aF1104.0
aF777.0
aF1255.0
asF688.0
(lp689
F724.0
aF990.0
aF870.0
aF1369.0
aF1257.0
asF689.0
(lp690
F497.0
aF519.0
aF794.0
aF1017.0
aF69.0
asF690.0
(lp691
F231.0
aF482.0
aF494.0
aF528.0
aF463.0
asF691.0
(lp692
F342.0
aF1300.0
aF135.0
aF632.0
aF841.0
asF692.0
(lp693
F773.0
aF1275.0
aF1171.0
aF191.0
aF915.0
asF693.0
(lp694
F940.0
aF532.0
aF188.0
aF94.0
aF772.0
asF694.0
(lp695
F1203.0
aF488.0
aF1081.0
aF198.0
aF845.0
asF695.0
(lp696
F507.0
aF877.0
aF760.0
aF560.0
aF1224.0
asF696.0
(lp697
F108.0
aF814.0
aF382.0
aF94.0
aF885.0
asF697.0
(lp698
F690.0
aF170.0
aF597.0
aF1217.0
aF885.0
asF698.0
(lp699
F812.0
aF1099.0
aF92.0
aF1017.0
aF845.0
asF699.0
(lp700
F1391.0
aF983.0
aF647.0
aF503.0
aF481.0
asF700.0
(lp701
F1324.0
aF545.0
aF226.0
aF772.0
aF602.0
asF701.0
(lp702
F680.0
aF1225.0
aF316.0
aF1409.0
aF1298.0
asF702.0
(lp703
F724.0
aF1093.0
aF1224.0
aF467.0
aF772.0
asF703.0
(lp704
F570.0
aF1058.0
aF382.0
aF94.0
aF772.0
asF704.0
(lp705
F1060.0
aF642.0
aF861.0
aF757.0
aF585.0
asF705.0
(lp706
F28.0
aF760.0
aF724.0
aF1223.0
aF198.0
asF706.0
(lp707
F847.0
aF803.0
aF745.0
aF512.0
aF811.0
asF707.0
(lp708
F579.0
aF282.0
aF1081.0
aF467.0
aF1259.0
asF708.0
(lp709
F110.0
aF290.0
aF1355.0
aF835.0
aF789.0
asF709.0
(lp710
F1315.0
aF577.0
aF172.0
aF1091.0
aF617.0
asF710.0
(lp711
F861.0
aF22.0
aF57.0
aF1040.0
aF1204.0
asF711.0
(lp712
F810.0
aF282.0
aF1223.0
aF1300.0
aF449.0
asF712.0
(lp713
F709.0
aF56.0
aF1044.0
aF751.0
aF427.0
asF713.0
(lp714
F760.0
aF1067.0
aF1369.0
aF790.0
aF602.0
asF714.0
(lp715
F1084.0
aF695.0
aF814.0
aF991.0
aF1035.0
asF715.0
(lp716
F416.0
aF710.0
aF385.0
aF467.0
aF915.0
asF716.0
(lp717
F1333.0
aF653.0
aF376.0
aF965.0
aF114.0
asF717.0
(lp718
F1275.0
aF926.0
aF439.0
aF1339.0
aF338.0
asF718.0
(lp719
F1134.0
aF1374.0
aF216.0
aF316.0
aF870.0
asF719.0
(lp720
F300.0
aF1240.0
aF692.0
aF488.0
aF1407.0
asF720.0
(lp721
F416.0
aF702.0
aF364.0
aF22.0
aF91.0
asF721.0
(lp722
F1012.0
aF519.0
aF547.0
aF1037.0
aF627.0
asF722.0
(lp723
F73.0
aF652.0
aF213.0
aF1051.0
aF1396.0
asF723.0
(lp724
F575.0
aF584.0
aF823.0
aF1034.0
aF1121.0
asF724.0
(lp725
F476.0
aF125.0
aF181.0
aF1035.0
aF202.0
asF725.0
(lp726
F1114.0
aF317.0
aF816.0
aF1231.0
aF247.0
asF726.0
(lp727
F742.0
aF1000.0
aF682.0
aF819.0
aF1204.0
asF727.0
(lp728
F267.0
aF1213.0
aF437.0
aF382.0
aF1279.0
asF728.0
(lp729
F57.0
aF1103.0
aF1030.0
aF529.0
aF767.0
asF729.0
(lp730
F799.0
aF401.0
aF710.0
aF848.0
aF772.0
asF730.0
(lp731
F1175.0
aF1369.0
aF191.0
aF1387.0
aF198.0
asF731.0
(lp732
F200.0
aF1369.0
aF1302.0
aF491.0
aF449.0
asF732.0
(lp733
F971.0
aF993.0
aF245.0
aF463.0
aF449.0
asF733.0
(lp734
F616.0
aF416.0
aF1205.0
aF364.0
aF91.0
asF734.0
(lp735
F276.0
aF191.0
aF824.0
aF1102.0
aF287.0
asF735.0
(lp736
F1059.0
aF1223.0
aF675.0
aF1030.0
aF520.0
asF736.0
(lp737
F697.0
aF1143.0
aF123.0
aF683.0
aF1403.0
asF737.0
(lp738
F266.0
aF762.0
aF467.0
aF1227.0
aF915.0
asF738.0
(lp739
F773.0
aF1031.0
aF302.0
aF1175.0
aF166.0
asF739.0
(lp740
F454.0
aF896.0
aF854.0
aF783.0
aF1279.0
asF740.0
(lp741
F1222.0
aF1376.0
aF956.0
aF913.0
aF1204.0
asF741.0
(lp742
F1397.0
aF753.0
aF287.0
aF96.0
aF181.0
asF742.0
(lp743
F127.0
aF1203.0
aF1344.0
aF395.0
aF449.0
asF743.0
(lp744
F663.0
aF647.0
aF1026.0
aF675.0
aF491.0
asF744.0
(lp745
F413.0
aF877.0
aF861.0
aF512.0
aF682.0
asF745.0
(lp746
F773.0
aF919.0
aF494.0
aF198.0
aF161.0
asF746.0
(lp747
F586.0
aF1153.0
aF219.0
aF1247.0
aF832.0
asF747.0
(lp748
F410.0
aF1091.0
aF753.0
aF897.0
aF979.0
asF748.0
(lp749
F283.0
aF800.0
aF1327.0
aF794.0
aF491.0
asF749.0
(lp750
F966.0
aF993.0
aF534.0
aF144.0
aF198.0
asF750.0
(lp751
F448.0
aF1357.0
aF595.0
aF325.0
aF198.0
asF751.0
(lp752
F1074.0
aF695.0
aF1130.0
aF724.0
aF777.0
asF752.0
(lp753
F1249.0
aF893.0
aF194.0
aF1369.0
aF341.0
asF753.0
(lp754
F548.0
aF1212.0
aF723.0
aF163.0
aF1396.0
asF754.0
(lp755
F305.0
aF1130.0
aF667.0
aF524.0
aF341.0
asF755.0
(lp756
F899.0
aF127.0
aF205.0
aF198.0
aF832.0
asF756.0
(lp757
F1296.0
aF613.0
aF751.0
aF325.0
aF1102.0
asF757.0
(lp758
F763.0
aF239.0
aF410.0
aF827.0
aF1234.0
asF758.0
(lp759
F1047.0
aF514.0
aF467.0
aF198.0
aF125.0
asF759.0
(lp760
F497.0
aF282.0
aF181.0
aF449.0
aF1346.0
asF760.0
(lp761
F1407.0
aF753.0
aF325.0
aF198.0
aF196.0
asF761.0
(lp762
F1354.0
aF687.0
aF359.0
aF204.0
aF822.0
asF762.0
(lp763
F1180.0
aF230.0
aF842.0
aF1084.0
aF760.0
asF763.0
(lp764
F535.0
aF194.0
aF165.0
aF467.0
aF96.0
asF764.0
(lp765
F447.0
aF1375.0
aF1407.0
aF790.0
aF841.0
asF765.0
(lp766
F406.0
aF986.0
aF1302.0
aF696.0
aF1257.0
asF766.0
(lp767
F784.0
aF1130.0
aF194.0
aF918.0
aF982.0
asF767.0
(lp768
F214.0
aF1151.0
aF415.0
aF558.0
aF986.0
asF768.0
(lp769
F1397.0
aF826.0
aF1081.0
aF287.0
aF1034.0
asF769.0
(lp770
F1404.0
aF881.0
aF620.0
aF408.0
aF397.0
asF770.0
(lp771
F1175.0
aF900.0
aF1387.0
aF1103.0
aF42.0
asF771.0
(lp772
F1175.0
aF768.0
aF526.0
aF870.0
aF1387.0
asF772.0
(lp773
F494.0
aF282.0
aF340.0
aF1206.0
aF1204.0
asF773.0
(lp774
F799.0
aF600.0
aF242.0
aF500.0
aF212.0
asF774.0
(lp775
F488.0
aF378.0
aF1409.0
aF761.0
aF215.0
asF775.0
(lp776
F1181.0
aF204.0
aF570.0
aF1223.0
aF915.0
asF776.0
(lp777
F131.0
aF732.0
aF92.0
aF14.0
aF1259.0
asF777.0
(lp778
F709.0
aF545.0
aF158.0
aF556.0
aF667.0
asF778.0
(lp779
F535.0
aF1369.0
aF760.0
aF144.0
aF790.0
asF779.0
(lp780
F1320.0
aF843.0
aF804.0
aF946.0
aF1121.0
asF780.0
(lp781
F903.0
aF677.0
aF856.0
aF760.0
aF31.0
asF781.0
(lp782
F1223.0
aF1019.0
aF814.0
aF1034.0
aF395.0
asF782.0
(lp783
F1075.0
aF553.0
aF1369.0
aF1081.0
aF1102.0
asF783.0
(lp784
F754.0
aF494.0
aF22.0
aF198.0
aF463.0
asF784.0
(lp785
F39.0
aF904.0
aF1322.0
aF240.0
aF371.0
asF785.0
(lp786
F1111.0
aF1369.0
aF318.0
aF467.0
aF585.0
asF786.0
(lp787
F739.0
aF1180.0
aF507.0
aF484.0
aF75.0
asF787.0
(lp788
F1315.0
aF530.0
aF28.0
aF495.0
aF344.0
asF788.0
(lp789
F488.0
aF751.0
aF1407.0
aF973.0
aF682.0
asF789.0
(lp790
F1300.0
aF1206.0
aF69.0
aF198.0
aF520.0
asF790.0
(lp791
F167.0
aF1304.0
aF955.0
aF424.0
aF1251.0
asF791.0
(lp792
F839.0
aF624.0
aF488.0
aF1009.0
aF1035.0
asF792.0
(lp793
F168.0
aF553.0
aF318.0
aF469.0
aF790.0
asF793.0
(lp794
F416.0
aF1031.0
aF988.0
aF1175.0
aF560.0
asF794.0
(lp795
F488.0
aF844.0
aF104.0
aF675.0
aF138.0
asF795.0
(lp796
F1283.0
aF1200.0
aF814.0
aF96.0
aF885.0
asF796.0
(lp797
F893.0
aF1212.0
aF751.0
aF1019.0
aF1155.0
asF797.0
(lp798
F1129.0
aF282.0
aF753.0
aF777.0
aF202.0
asF798.0
(lp799
F1113.0
aF353.0
aF1370.0
aF221.0
aF22.0
asF799.0
(lp800
F752.0
aF1400.0
aF1339.0
aF352.0
aF972.0
asF800.0
(lp801
F1397.0
aF553.0
aF245.0
aF1058.0
aF57.0
asF801.0
(lp802
F1352.0
aF1151.0
aF1369.0
aF1341.0
aF462.0
asF802.0
(lp803
F317.0
aF411.0
aF490.0
aF1035.0
aF155.0
asF803.0
(lp804
F497.0
aF1260.0
aF1212.0
aF1265.0
aF884.0
asF804.0
(lp805
F1351.0
aF677.0
aF1247.0
aF178.0
aF1409.0
asF805.0
(lp806
F688.0
aF1000.0
aF551.0
aF161.0
aF991.0
asF806.0
(lp807
F493.0
aF1386.0
aF134.0
aF491.0
aF1.0
asF807.0
(lp808
F677.0
aF1339.0
aF1407.0
aF1220.0
aF794.0
asF808.0
(lp809
F285.0
aF667.0
aF1136.0
aF325.0
aF107.0
asF809.0
(lp810
F50.0
aF724.0
aF1379.0
aF121.0
aF248.0
asF810.0
(lp811
F1293.0
aF245.0
aF1339.0
aF769.0
aF1001.0
asF811.0
(lp812
F739.0
aF709.0
aF302.0
aF1212.0
aF1217.0
asF812.0
(lp813
F1339.0
aF1125.0
aF321.0
aF318.0
aF337.0
asF813.0
(lp814
F1248.0
aF576.0
aF512.0
aF486.0
aF832.0
asF814.0
(lp815
F492.0
aF472.0
aF1182.0
aF1390.0
aF1101.0
asF815.0
(lp816
F1176.0
aF690.0
aF849.0
aF1068.0
aF619.0
asF816.0
(lp817
F782.0
aF1391.0
aF1065.0
aF427.0
aF491.0
asF817.0
(lp818
F65.0
aF695.0
aF514.0
aF957.0
aF41.0
asF818.0
(lp819
F904.0
aF243.0
aF928.0
aF157.0
aF437.0
asF819.0
(lp820
F862.0
aF1399.0
aF92.0
aF1214.0
aF22.0
asF820.0
(lp821
F204.0
aF488.0
aF92.0
aF1107.0
aF190.0
asF821.0
(lp822
F515.0
aF1161.0
aF119.0
aF551.0
aF1017.0
as.